///////////////////////////////////////////////////////////////////////////////
//                                                                            /
// IAR C/C++ Compiler V8.30.1.41636 for 8051            29/Oct/2015  08:23:49 /
// Copyright 2004-2013 IAR Systems AB.                                        /
//                                                                            /
//    Core               =  plain                                             /
//    Code model         =  banked                                            /
//    Data model         =  large                                             /
//    Calling convention =  xdata reentrant                                   /
//    Constant location  =  data_rom                                          /
//    Dptr setup         =  1,16                                              /
//                                                                            /
//    Source file        =  C:\Users\paolo\Documents\GitHub\zpowermeter\firmw /
//                          are\Components\stack\zcl\AttributeUtils.cpp       /
//    Command line       =  -f C:\Users\paolo\Documents\GitHub\zpowermeter\fi /
//                          rmware\CC2530DB\..\Tools\f8wRouter.cfg            /
//                          (-DCPU32MHZ -DROOT=__near_func                    /
//                          -DMAC_CFG_APP_PENDING_QUEUE=TRUE                  /
//                          -DMAC_CFG_TX_DATA_MAX=5 -DMAC_CFG_TX_MAX=8        /
//                          -DMAC_CFG_RX_MAX=5 -DRTR_NWK) -f                  /
//                          C:\Users\paolo\Documents\GitHub\zpowermeter\firmw /
//                          are\CC2530DB\..\Tools\f8wConfig.cfg (-DZIGBEEPRO  /
//                          -DSECURE=0 -DZG_SECURE_DYNAMIC=0 -DREFLECTOR      /
//                          -DDEFAULT_CHANLIST=0x00000800                     /
//                          -DZDAPP_CONFIG_PAN_ID=0xFFFF                      /
//                          -DNWK_START_DELAY=100 -DEXTENDED_JOINING_RANDOM_M /
//                          ASK=0x007F -DBEACON_REQUEST_DELAY=100             /
//                          -DBEACON_REQ_DELAY_MASK=0x00FF                    /
//                          -DLINK_STATUS_JITTER_MASK=0x007F                  /
//                          -DROUTE_EXPIRY_TIME=30 -DAPSC_ACK_WAIT_DURATION_P /
//                          OLLED=3000 -DNWK_INDIRECT_MSG_TIMEOUT=7           /
//                          -DMAX_RREQ_ENTRIES=8 -DAPSC_MAX_FRAME_RETRIES=3   /
//                          -DNWK_MAX_DATA_RETRIES=2                          /
//                          -DMAX_POLL_FAILURE_RETRIES=2 -DMAX_BCAST=9        /
//                          -DAPS_MAX_GROUPS=16 -DMAX_RTG_ENTRIES=40          /
//                          -DNWK_MAX_BINDING_ENTRIES=4                       /
//                          -DMAX_BINDING_CLUSTER_IDS=4                       /
//                          "-DDEFAULT_KEY={0x01, 0x03, 0x05, 0x07, 0x09,     /
//                          0x0B, 0x0D, 0x0F, 0x00, 0x02, 0x04, 0x06, 0x08,   /
//                          0x0A, 0x0C, 0x0D}" -DMAC_MAX_FRAME_SIZE=116       /
//                          -DZDNWKMGR_MIN_TRANSMISSIONS=20 "-DCONST=const    /
//                          __code" -DGENERIC=__generic                       /
//                          -DRFD_RCVC_ALWAYS_ON=FALSE -DPOLL_RATE=5000       /
//                          -DQUEUED_POLL_RATE=100 -DRESPONSE_POLL_RATE=100   /
//                          -DREJOIN_POLL_RATE=440) -f                        /
//                          C:\Users\paolo\Documents\GitHub\zpowermeter\firmw /
//                          are\CC2530DB\..\Tools\f8wZCL.cfg                  /
//                          C:\Users\paolo\Documents\GitHub\zpowermeter\firmw /
//                          are\Components\stack\zcl\AttributeUtils.cpp -D    /
//                          SECURE=0 -D OSC32K_CRYSTAL_INSTALLED=FALSE -D     /
//                          HAL_KEY=FALSE -D HAL_BOARD_CC2530EB_REV17 -D      /
//                          TC_LINKKEY_JOIN -D NV_INIT -D xNV_RESTORE -D      /
//                          MULTICAST_ENABLED=FALSE -D ZCL_READ -D ZCL_WRITE  /
//                          -D ZCL_REPORT -D FEATURE_SYSTEM_STATS -lC         /
//                          C:\Users\paolo\Documents\GitHub\zpowermeter\firmw /
//                          are\CC2530DB\RouterEB\List\ -lA                   /
//                          C:\Users\paolo\Documents\GitHub\zpowermeter\firmw /
//                          are\CC2530DB\RouterEB\List\ --diag_suppress       /
//                          Pe001,Pa010 -o C:\Users\paolo\Documents\GitHub\zp /
//                          owermeter\firmware\CC2530DB\RouterEB\Obj\ -e      /
//                          --debug --core=plain --dptr=16,1                  /
//                          --data_model=large --code_model=banked            /
//                          --calling_convention=xdata_reentrant              /
//                          --place_constants=data_rom --nr_virtual_regs 16   /
//                          -I C:\Users\paolo\Documents\GitHub\zpowermeter\fi /
//                          rmware\CC2530DB\ -I C:\Users\paolo\Documents\GitH /
//                          ub\zpowermeter\firmware\CC2530DB\..\Source\ -I    /
//                          C:\Users\paolo\Documents\GitHub\zpowermeter\firmw /
//                          are\CC2530DB\..\Source\ha\ -I                     /
//                          C:\Users\paolo\Documents\GitHub\zpowermeter\firmw /
//                          are\CC2530DB\..\Source\zmain\ -I                  /
//                          C:\Users\paolo\Documents\GitHub\zpowermeter\firmw /
//                          are\CC2530DB\..\Components\hal\include\ -I        /
//                          C:\Users\paolo\Documents\GitHub\zpowermeter\firmw /
//                          are\CC2530DB\..\Components\hal\target\CC2530EB\   /
//                          -I C:\Users\paolo\Documents\GitHub\zpowermeter\fi /
//                          rmware\CC2530DB\..\Components\mac\include\ -I     /
//                          C:\Users\paolo\Documents\GitHub\zpowermeter\firmw /
//                          are\CC2530DB\..\Components\mac\high_level\ -I     /
//                          C:\Users\paolo\Documents\GitHub\zpowermeter\firmw /
//                          are\CC2530DB\..\Components\mac\low_level\srf04\   /
//                          -I C:\Users\paolo\Documents\GitHub\zpowermeter\fi /
//                          rmware\CC2530DB\..\Components\mac\low_level\srf04 /
//                          \single_chip\ -I C:\Users\paolo\Documents\GitHub\ /
//                          zpowermeter\firmware\CC2530DB\..\Components\mt\   /
//                          -I C:\Users\paolo\Documents\GitHub\zpowermeter\fi /
//                          rmware\CC2530DB\..\Components\osal\include\ -I    /
//                          C:\Users\paolo\Documents\GitHub\zpowermeter\firmw /
//                          are\CC2530DB\..\Components\services\saddr\ -I     /
//                          C:\Users\paolo\Documents\GitHub\zpowermeter\firmw /
//                          are\CC2530DB\..\Components\services\sdata\ -I     /
//                          C:\Users\paolo\Documents\GitHub\zpowermeter\firmw /
//                          are\CC2530DB\..\Components\stack\af\ -I           /
//                          C:\Users\paolo\Documents\GitHub\zpowermeter\firmw /
//                          are\CC2530DB\..\Components\stack\nwk\ -I          /
//                          C:\Users\paolo\Documents\GitHub\zpowermeter\firmw /
//                          are\CC2530DB\..\Components\stack\sapi\ -I         /
//                          C:\Users\paolo\Documents\GitHub\zpowermeter\firmw /
//                          are\CC2530DB\..\Components\stack\sec\ -I          /
//                          C:\Users\paolo\Documents\GitHub\zpowermeter\firmw /
//                          are\CC2530DB\..\Components\stack\sys\ -I          /
//                          C:\Users\paolo\Documents\GitHub\zpowermeter\firmw /
//                          are\CC2530DB\..\Components\stack\zcl\ -I          /
//                          C:\Users\paolo\Documents\GitHub\zpowermeter\firmw /
//                          are\CC2530DB\..\Components\stack\zdo\ -I          /
//                          C:\Users\paolo\Documents\GitHub\zpowermeter\firmw /
//                          are\CC2530DB\..\Components\zmac\ -I               /
//                          C:\Users\paolo\Documents\GitHub\zpowermeter\firmw /
//                          are\CC2530DB\..\Components\zmac\f8w\ -Ohz --eec++ /
//    List file          =  C:\Users\paolo\Documents\GitHub\zpowermeter\firmw /
//                          are\CC2530DB\RouterEB\List\AttributeUtils.s51     /
//                                                                            /
//                                                                            /
///////////////////////////////////////////////////////////////////////////////

        NAME AttributeUtils

        RTMODEL "__SystemLibrary", "CLib"
        RTMODEL "__calling_convention", "xdata_reentrant"
        RTMODEL "__code_model", "banked"
        RTMODEL "__core", "plain"
        RTMODEL "__data_model", "large"
        RTMODEL "__dptr_size", "16"
        RTMODEL "__extended_stack", "disabled"
        RTMODEL "__location_for_constants", "data"
        RTMODEL "__number_of_dptrs", "1"
        RTMODEL "__rt_version", "1"

        RSEG DOVERLAY:DATA:NOROOT(0)
        RSEG IOVERLAY:IDATA:NOROOT(0)
        RSEG ISTACK:IDATA:NOROOT(0)
        RSEG PSTACK:XDATA:NOROOT(0)
        RSEG XSTACK:XDATA:NOROOT(0)

        EXTERN ?V0
        EXTERN ?V1
        EXTERN ?V2
        EXTERN ?V3
        EXTERN ?V4
        EXTERN ?V5
        EXTERN ?BANKED_ENTER_XDATA
        EXTERN ?BANKED_LEAVE_XDATA
        EXTERN ?BDISPATCH
        EXTERN ?BRET
        EXTERN ?DEALLOC_XSTACK8
        EXTERN ?L_MOV_X
        EXTERN ?PUSH_XSTACK8_X_FOUR
        EXTERN ?PUSH_XSTACK_I_THREE
        EXTERN ?UC_SWITCH_SPARSE
        EXTERN ?UL_SHR

        PUBLIC ??zclGetAttrDataLength?relay
        FUNCTION ??zclGetAttrDataLength?relay,0203H
        PUBLIC ??zclGetDataTypeLength?relay
        FUNCTION ??zclGetDataTypeLength?relay,0203H
        PUBLIC ??zclSerializeData?relay
        FUNCTION ??zclSerializeData?relay,0203H
        PUBLIC zclGetAttrDataLength
        FUNCTION zclGetAttrDataLength,021203H
        ARGFRAME XSTACK, 0, STACK
        LOCFRAME XSTACK, 9, STACK
        PUBLIC zclGetDataTypeLength
        FUNCTION zclGetDataTypeLength,0203H
        ARGFRAME XSTACK, 9, STACK
        ARGFRAME IOVERLAY, 0, STATIC
        ARGFRAME DOVERLAY, 0, STATIC
        PUBLIC zclSerializeData
        FUNCTION zclSerializeData,0a1203H
        ARGFRAME XSTACK, 0, STACK
        LOCFRAME ISTACK, 1, STACK
        LOCFRAME XSTACK, 18, STACK
        
          CFI Names cfiNames0
          CFI StackFrame CFA_SP SP IDATA
          CFI StackFrame CFA_PSP16 PSP16 XDATA
          CFI StackFrame CFA_XSP16 XSP16 XDATA
          CFI StaticOverlayFrame CFA_IOVERLAY IOVERLAY
          CFI StaticOverlayFrame CFA_DOVERLAY DOVERLAY
          CFI Resource `PSW.CY`:1, `B.BR0`:1, `B.BR1`:1, `B.BR2`:1, `B.BR3`:1
          CFI Resource `B.BR4`:1, `B.BR5`:1, `B.BR6`:1, `B.BR7`:1, `VB.BR8`:1
          CFI Resource `VB.BR9`:1, `VB.BR10`:1, `VB.BR11`:1, `VB.BR12`:1
          CFI Resource `VB.BR13`:1, `VB.BR14`:1, `VB.BR15`:1, VB:8, B:8, A:8
          CFI Resource PSW:8, DPL0:8, DPH0:8, R0:8, R1:8, R2:8, R3:8, R4:8, R5:8
          CFI Resource R6:8, R7:8, V0:8, V1:8, V2:8, V3:8, V4:8, V5:8, V6:8, V7:8
          CFI Resource V8:8, V9:8, V10:8, V11:8, V12:8, V13:8, V14:8, V15:8, SP:8
          CFI Resource PSPH:8, PSPL:8, PSP16:16, XSPH:8, XSPL:8, XSP16:16
          CFI VirtualResource ?RET:24
          CFI Resource ?BRET_EXT:8
          CFI VirtualResource ?RET_HIGH:8, ?RET_LOW:8
          CFI ResourceParts PSP16 PSPH, PSPL
          CFI ResourceParts XSP16 XSPH, XSPL
          CFI ResourceParts ?RET ?BRET_EXT, ?RET_HIGH, ?RET_LOW
          CFI EndNames cfiNames0
        
          CFI Common cfiCommon0 Using cfiNames0
          CFI CodeAlign 1
          CFI DataAlign -1
          CFI ReturnAddress ?RET CODE
          CFI CFA_DOVERLAY Used
          CFI CFA_IOVERLAY Used
          CFI CFA_SP SP+-3
          CFI CFA_PSP16 PSP16+0
          CFI CFA_XSP16 XSP16+0
          CFI `PSW.CY` SameValue
          CFI `B.BR0` SameValue
          CFI `B.BR1` SameValue
          CFI `B.BR2` SameValue
          CFI `B.BR3` SameValue
          CFI `B.BR4` SameValue
          CFI `B.BR5` SameValue
          CFI `B.BR6` SameValue
          CFI `B.BR7` SameValue
          CFI `VB.BR8` SameValue
          CFI `VB.BR9` SameValue
          CFI `VB.BR10` SameValue
          CFI `VB.BR11` SameValue
          CFI `VB.BR12` SameValue
          CFI `VB.BR13` SameValue
          CFI `VB.BR14` SameValue
          CFI `VB.BR15` SameValue
          CFI VB SameValue
          CFI B Undefined
          CFI A Undefined
          CFI PSW SameValue
          CFI DPL0 SameValue
          CFI DPH0 SameValue
          CFI R0 Undefined
          CFI R1 Undefined
          CFI R2 Undefined
          CFI R3 Undefined
          CFI R4 Undefined
          CFI R5 Undefined
          CFI R6 SameValue
          CFI R7 SameValue
          CFI V0 SameValue
          CFI V1 SameValue
          CFI V2 SameValue
          CFI V3 SameValue
          CFI V4 SameValue
          CFI V5 SameValue
          CFI V6 SameValue
          CFI V7 SameValue
          CFI V8 SameValue
          CFI V9 SameValue
          CFI V10 SameValue
          CFI V11 SameValue
          CFI V12 SameValue
          CFI V13 SameValue
          CFI V14 SameValue
          CFI V15 SameValue
          CFI PSPH Undefined
          CFI PSPL Undefined
          CFI XSPH Undefined
          CFI XSPL Undefined
          CFI ?RET Concat
          CFI ?BRET_EXT Frame(CFA_SP, 3)
          CFI ?RET_HIGH Frame(CFA_SP, 2)
          CFI ?RET_LOW Frame(CFA_SP, 1)
          CFI EndCommon cfiCommon0
        
        
          CFI Common cfiCommon1 Using cfiNames0
          CFI CodeAlign 1
          CFI DataAlign -1
          CFI ReturnAddress ?RET CODE
          CFI CFA_DOVERLAY Used
          CFI CFA_IOVERLAY Used
          CFI CFA_SP SP+-2
          CFI CFA_PSP16 PSP16+0
          CFI CFA_XSP16 XSP16+0
          CFI `PSW.CY` SameValue
          CFI `B.BR0` SameValue
          CFI `B.BR1` SameValue
          CFI `B.BR2` SameValue
          CFI `B.BR3` SameValue
          CFI `B.BR4` SameValue
          CFI `B.BR5` SameValue
          CFI `B.BR6` SameValue
          CFI `B.BR7` SameValue
          CFI `VB.BR8` SameValue
          CFI `VB.BR9` SameValue
          CFI `VB.BR10` SameValue
          CFI `VB.BR11` SameValue
          CFI `VB.BR12` SameValue
          CFI `VB.BR13` SameValue
          CFI `VB.BR14` SameValue
          CFI `VB.BR15` SameValue
          CFI VB SameValue
          CFI B SameValue
          CFI A SameValue
          CFI PSW SameValue
          CFI DPL0 SameValue
          CFI DPH0 SameValue
          CFI R0 SameValue
          CFI R1 SameValue
          CFI R2 SameValue
          CFI R3 SameValue
          CFI R4 SameValue
          CFI R5 SameValue
          CFI R6 SameValue
          CFI R7 SameValue
          CFI V0 SameValue
          CFI V1 SameValue
          CFI V2 SameValue
          CFI V3 SameValue
          CFI V4 SameValue
          CFI V5 SameValue
          CFI V6 SameValue
          CFI V7 SameValue
          CFI V8 SameValue
          CFI V9 SameValue
          CFI V10 SameValue
          CFI V11 SameValue
          CFI V12 SameValue
          CFI V13 SameValue
          CFI V14 SameValue
          CFI V15 SameValue
          CFI PSPH Undefined
          CFI PSPL Undefined
          CFI XSPH Undefined
          CFI XSPL Undefined
          CFI ?RET Concat
          CFI ?BRET_EXT SameValue
          CFI ?RET_HIGH Frame(CFA_SP, 2)
          CFI ?RET_LOW Frame(CFA_SP, 1)
          CFI EndCommon cfiCommon1
        
osal_buffer_uint32  SYMBOL "osal_buffer_uint32"
??osal_buffer_uint32?relay SYMBOL "?relay", osal_buffer_uint32
osal_memcpy         SYMBOL "osal_memcpy"
??osal_memcpy?relay SYMBOL "?relay", osal_memcpy
zclGetAttrDataLength SYMBOL "zclGetAttrDataLength"
??zclGetAttrDataLength?relay SYMBOL "?relay", zclGetAttrDataLength
zclGetDataTypeLength SYMBOL "zclGetDataTypeLength"
??zclGetDataTypeLength?relay SYMBOL "?relay", zclGetDataTypeLength
zclSerializeData    SYMBOL "zclSerializeData"
??zclSerializeData?relay SYMBOL "?relay", zclSerializeData

        EXTERN ??osal_buffer_uint32?relay
        FUNCTION ??osal_buffer_uint32?relay,00H
        EXTERN ??osal_memcpy?relay
        FUNCTION ??osal_memcpy?relay,00H
        EXTERN osal_buffer_uint32
        FUNCTION osal_buffer_uint32,0202H
        ARGFRAME ISTACK, 0, STACK
        ARGFRAME PSTACK, 0, STACK
        ARGFRAME XSTACK, 18, STACK
        ARGFRAME IOVERLAY, 0, STATIC
        ARGFRAME DOVERLAY, 0, STATIC
        EXTERN osal_memcpy
        FUNCTION osal_memcpy,0202H
        ARGFRAME ISTACK, 0, STACK
        ARGFRAME PSTACK, 0, STACK
        ARGFRAME XSTACK, 17, STACK
        ARGFRAME IOVERLAY, 0, STATIC
        ARGFRAME DOVERLAY, 0, STATIC

// C:\Users\paolo\Documents\GitHub\zpowermeter\firmware\Components\stack\zcl\AttributeUtils.cpp
//    1 #include "AttributeUtils.h"
//    2 #include "hal_defs.h"
//    3 #include "ssp.h"
//    4 #include "OSAL.h"
//    5 
//    6 /*********************************************************************
//    7  * @fn      zclGetAttrDataLength
//    8  *
//    9  * @brief   Return the length of the attribute.
//   10  *
//   11  * @param   dataType - data type
//   12  * @param   pData - pointer to data
//   13  *
//   14  * @return  returns atrribute length
//   15  */

        RSEG BANKED_CODE:CODE:NOROOT(0)
//   16 uint16 zclGetAttrDataLength( uint8 dataType, uint8 *pData ){
zclGetAttrDataLength:
          CFI Block cfiBlock0 Using cfiCommon0
          CFI Function zclGetAttrDataLength
        CODE
        FUNCALL zclGetAttrDataLength, zclGetDataTypeLength
        LOCFRAME ISTACK, 0, STACK
        LOCFRAME PSTACK, 0, STACK
        LOCFRAME XSTACK, 9, STACK
        LOCFRAME IOVERLAY, 0, STATIC
        LOCFRAME DOVERLAY, 0, STATIC
        ARGFRAME ISTACK, 0, STACK
        ARGFRAME PSTACK, 0, STACK
        ARGFRAME XSTACK, 9, STACK
        ARGFRAME IOVERLAY, 0, STATIC
        ARGFRAME DOVERLAY, 0, STATIC
        MOV     A,#-0x9
        LCALL   ?BANKED_ENTER_XDATA
          CFI DPH0 load(1, XDATA, add(CFA_XSP16, literal(-1)))
          CFI DPL0 load(1, XDATA, add(CFA_XSP16, literal(-2)))
          CFI ?BRET_EXT load(1, XDATA, add(CFA_XSP16, literal(-3)))
          CFI ?RET_HIGH load(1, XDATA, add(CFA_XSP16, literal(-4)))
          CFI ?RET_LOW load(1, XDATA, add(CFA_XSP16, literal(-5)))
          CFI R7 load(1, XDATA, add(CFA_XSP16, literal(-6)))
          CFI V0 load(1, XDATA, add(CFA_XSP16, literal(-7)))
          CFI VB load(1, XDATA, add(CFA_XSP16, literal(-8)))
          CFI R6 load(1, XDATA, add(CFA_XSP16, literal(-9)))
          CFI CFA_SP SP+0
          CFI CFA_XSP16 add(XSP16, 9)
        ; Saved register size: 9
        ; Auto size: 0
        MOV     A,R1
        MOV     R6,A
//   17 	uint16 dataLen = 0;
//   18 
//   19 	if ( dataType == ZCL_DATATYPE_LONG_CHAR_STR || dataType == ZCL_DATATYPE_LONG_OCTET_STR ){
        MOV     A,#0x44
        XRL     A,R6
        JZ      ??zclGetAttrDataLength_0
        MOV     A,#0x43
        XRL     A,R6
        JNZ     ??zclGetAttrDataLength_1
//   20 		dataLen = BUILD_UINT16( pData[0], pData[1] ) + 2; // long string length + 2 for length field
??zclGetAttrDataLength_0:
        MOV     DPL,R2
        MOV     DPH,R3
        LCALL   ?Subroutine1 & 0xFFFF
//   21 	} else if ( dataType == ZCL_DATATYPE_CHAR_STR || dataType == ZCL_DATATYPE_OCTET_STR ) {
??CrossCallReturnLabel_2:
        MOV     R2,A
        CLR     A
        ADDC    A,R1
        SJMP    ??zclGetAttrDataLength_2
??zclGetAttrDataLength_1:
        MOV     A,#0x42
        XRL     A,R6
        JZ      ??zclGetAttrDataLength_3
        MOV     A,#0x41
        XRL     A,R6
        JNZ     ??zclGetAttrDataLength_4
//   22 		dataLen = *pData + 1; // string length + 1 for length field
??zclGetAttrDataLength_3:
        MOV     DPL,R2
        MOV     DPH,R3
        MOVX    A,@DPTR
        ADD     A,#0x1
        MOV     R2,A
        CLR     A
        ADDC    A,#0x0
??zclGetAttrDataLength_2:
        MOV     R3,A
        SJMP    ??zclGetAttrDataLength_5
//   23 	} else {
//   24 		dataLen = zclGetDataTypeLength( dataType );
??zclGetAttrDataLength_4:
        ; Setup parameters for call to function zclGetDataTypeLength
        LCALL   ??zclGetDataTypeLength?relay; Banked call to: zclGetDataTypeLength
        MOV     A,R1
        MOV     R2,A
        MOV     R3,#0x0
//   25 	}
//   26 
//   27 	return ( dataLen );
??zclGetAttrDataLength_5:
        MOV     R7,#0x1
        LJMP    ?BANKED_LEAVE_XDATA
          CFI EndBlock cfiBlock0
//   28 }
//   29 
//   30 /*********************************************************************
//   31  * @fn      zclGetDataTypeLength
//   32  *
//   33  * @brief   Return the length of the datatype in octet.
//   34  *
//   35  *          NOTE: Should not be called for ZCL_DATATYPE_OCTECT_STR or
//   36  *                ZCL_DATATYPE_CHAR_STR data types.
//   37  *
//   38  * @param   dataType - data type
//   39  *
//   40  * @return  length of data
//   41  */

        RSEG BANKED_CODE:CODE:NOROOT(0)
//   42 uint8 zclGetDataTypeLength( uint8 dataType ){
zclGetDataTypeLength:
          CFI Block cfiBlock1 Using cfiCommon0
          CFI Function zclGetDataTypeLength
        CODE
        ; Saved register size: 0
        ; Auto size: 0
        MOV     A,R1
//   43 	uint8 len;
//   44 
//   45 	switch ( dataType ) {
        ADD     A,#-0x8
        JZ      ??zclGetDataTypeLength_0
        DEC     A
        JZ      ??zclGetDataTypeLength_1
        DEC     A
        JZ      ??zclGetDataTypeLength_2
        DEC     A
        JZ      ??zclGetDataTypeLength_3
        ADD     A,#-0x5
        JZ      ??zclGetDataTypeLength_0
        ADD     A,#-0x8
        JZ      ??zclGetDataTypeLength_0
        DEC     A
        JZ      ??zclGetDataTypeLength_1
        DEC     A
        JZ      ??zclGetDataTypeLength_2
        DEC     A
        JZ      ??zclGetDataTypeLength_3
        ADD     A,#-0x5
        JZ      ??zclGetDataTypeLength_0
        DEC     A
        JZ      ??zclGetDataTypeLength_1
        DEC     A
        JZ      ??zclGetDataTypeLength_2
        DEC     A
        JZ      ??zclGetDataTypeLength_3
        DEC     A
        JZ      ??zclGetDataTypeLength_4
        DEC     A
        JZ      ??zclGetDataTypeLength_5
        DEC     A
        JZ      ??zclGetDataTypeLength_6
        DEC     A
        JZ      ??zclGetDataTypeLength_7
        DEC     A
        JZ      ??zclGetDataTypeLength_0
        DEC     A
        JZ      ??zclGetDataTypeLength_1
        DEC     A
        JZ      ??zclGetDataTypeLength_2
        DEC     A
        JZ      ??zclGetDataTypeLength_3
        DEC     A
        JZ      ??zclGetDataTypeLength_4
        DEC     A
        JZ      ??zclGetDataTypeLength_5
        DEC     A
        JZ      ??zclGetDataTypeLength_6
        DEC     A
        JZ      ??zclGetDataTypeLength_7
        DEC     A
        JZ      ??zclGetDataTypeLength_0
        DEC     A
        JZ      ??zclGetDataTypeLength_1
        ADD     A,#-0x7
        JZ      ??zclGetDataTypeLength_1
        DEC     A
        JZ      ??zclGetDataTypeLength_3
        DEC     A
        JZ      ??zclGetDataTypeLength_7
        ADD     A,#0x5a
        JZ      ??zclGetDataTypeLength_3
        DEC     A
        JZ      ??zclGetDataTypeLength_3
        DEC     A
        JZ      ??zclGetDataTypeLength_3
        ADD     A,#-0x6
        JZ      ??zclGetDataTypeLength_1
        DEC     A
        JZ      ??zclGetDataTypeLength_1
        DEC     A
        JZ      ??zclGetDataTypeLength_3
        ADD     A,#-0x6
        JZ      ??zclGetDataTypeLength_7
        DEC     A
        JZ      ??zclGetDataTypeLength_8
        SJMP    ??zclGetDataTypeLength_9
//   46     case ZCL_DATATYPE_DATA8:
//   47     case ZCL_DATATYPE_BOOLEAN:
//   48     case ZCL_DATATYPE_BITMAP8:
//   49     case ZCL_DATATYPE_INT8:
//   50     case ZCL_DATATYPE_UINT8:
//   51     case ZCL_DATATYPE_ENUM8:
//   52       len = 1;
??zclGetDataTypeLength_0:
        MOV     R1,#0x1
//   53       break;
        SJMP    ??zclGetDataTypeLength_10
//   54 
//   55     case ZCL_DATATYPE_DATA16:
//   56     case ZCL_DATATYPE_BITMAP16:
//   57     case ZCL_DATATYPE_UINT16:
//   58     case ZCL_DATATYPE_INT16:
//   59     case ZCL_DATATYPE_ENUM16:
//   60     case ZCL_DATATYPE_SEMI_PREC:
//   61     case ZCL_DATATYPE_CLUSTER_ID:
//   62     case ZCL_DATATYPE_ATTR_ID:
//   63       len = 2;
??zclGetDataTypeLength_1:
        MOV     R1,#0x2
//   64       break;
        SJMP    ??zclGetDataTypeLength_10
//   65 
//   66     case ZCL_DATATYPE_DATA24:
//   67     case ZCL_DATATYPE_BITMAP24:
//   68     case ZCL_DATATYPE_UINT24:
//   69     case ZCL_DATATYPE_INT24:
//   70       len = 3;
??zclGetDataTypeLength_2:
        MOV     R1,#0x3
//   71       break;
        SJMP    ??zclGetDataTypeLength_10
//   72 
//   73     case ZCL_DATATYPE_DATA32:
//   74     case ZCL_DATATYPE_BITMAP32:
//   75     case ZCL_DATATYPE_UINT32:
//   76     case ZCL_DATATYPE_INT32:
//   77     case ZCL_DATATYPE_SINGLE_PREC:
//   78     case ZCL_DATATYPE_TOD:
//   79     case ZCL_DATATYPE_DATE:
//   80     case ZCL_DATATYPE_UTC:
//   81     case ZCL_DATATYPE_BAC_OID:
//   82       len = 4;
??zclGetDataTypeLength_3:
        MOV     R1,#0x4
//   83       break;
        SJMP    ??zclGetDataTypeLength_10
//   84 
//   85    case ZCL_DATATYPE_UINT40:
//   86    case ZCL_DATATYPE_INT40:
//   87        len = 5;
??zclGetDataTypeLength_4:
        MOV     R1,#0x5
//   88        break;
        SJMP    ??zclGetDataTypeLength_10
//   89 
//   90    case ZCL_DATATYPE_UINT48:
//   91    case ZCL_DATATYPE_INT48:
//   92        len = 6;
??zclGetDataTypeLength_5:
        MOV     R1,#0x6
//   93        break;
        SJMP    ??zclGetDataTypeLength_10
//   94 
//   95    case ZCL_DATATYPE_UINT56:
//   96    case ZCL_DATATYPE_INT56:
//   97        len = 7;
??zclGetDataTypeLength_6:
        MOV     R1,#0x7
//   98        break;
        SJMP    ??zclGetDataTypeLength_10
//   99 
//  100    case ZCL_DATATYPE_DOUBLE_PREC:
//  101    case ZCL_DATATYPE_IEEE_ADDR:
//  102    case ZCL_DATATYPE_UINT64:
//  103    case ZCL_DATATYPE_INT64:
//  104      len = 8;
??zclGetDataTypeLength_7:
        MOV     R1,#0x8
//  105      break;
        SJMP    ??zclGetDataTypeLength_10
//  106 
//  107     case ZCL_DATATYPE_128_BIT_SEC_KEY:
//  108      len = SEC_KEY_LEN;
??zclGetDataTypeLength_8:
        MOV     R1,#0x10
//  109      break;
        SJMP    ??zclGetDataTypeLength_10
//  110 
//  111     case ZCL_DATATYPE_NO_DATA:
//  112     case ZCL_DATATYPE_UNKNOWN:
//  113       // Fall through
//  114 
//  115     default:
//  116       len = 0;
??zclGetDataTypeLength_9:
        MOV     R1,#0x0
//  117       break;
//  118   	}
//  119 
//  120 	return len ;
??zclGetDataTypeLength_10:
        LJMP    ?BRET
          CFI EndBlock cfiBlock1
//  121 }
//  122 
//  123 /*********************************************************************
//  124  * @fn      zclSerializeData
//  125  *
//  126  * @brief   Builds a buffer from the attribute data to sent out over
//  127  *          the air.
//  128  *          NOTE - Not compatible with application's attributes callbacks.
//  129  *
//  130  * @param   dataType - data types defined in zcl.h
//  131  * @param   attrData - pointer to the attribute data
//  132  * @param   buf - where to put the serialized data
//  133  *
//  134  * @return  pointer to end of destination buffer
//  135  */

        RSEG BANKED_CODE:CODE:NOROOT(0)
//  136 uint8 *zclSerializeData( uint8 dataType, void *attrData, uint8 *buf ){
zclSerializeData:
          CFI Block cfiBlock2 Using cfiCommon0
          CFI Function zclSerializeData
        CODE
        FUNCALL zclSerializeData, osal_buffer_uint32
        LOCFRAME ISTACK, 0, STACK
        LOCFRAME PSTACK, 0, STACK
        LOCFRAME XSTACK, 18, STACK
        LOCFRAME IOVERLAY, 0, STATIC
        LOCFRAME DOVERLAY, 0, STATIC
        ARGFRAME ISTACK, 0, STACK
        ARGFRAME PSTACK, 0, STACK
        ARGFRAME XSTACK, 18, STACK
        ARGFRAME IOVERLAY, 0, STATIC
        ARGFRAME DOVERLAY, 0, STATIC
        FUNCALL zclSerializeData, osal_memcpy
        LOCFRAME ISTACK, 0, STACK
        LOCFRAME PSTACK, 0, STACK
        LOCFRAME XSTACK, 17, STACK
        LOCFRAME IOVERLAY, 0, STATIC
        LOCFRAME DOVERLAY, 0, STATIC
        ARGFRAME ISTACK, 0, STACK
        ARGFRAME PSTACK, 0, STACK
        ARGFRAME XSTACK, 17, STACK
        ARGFRAME IOVERLAY, 0, STATIC
        ARGFRAME DOVERLAY, 0, STATIC
        FUNCALL zclSerializeData, osal_memcpy
        LOCFRAME ISTACK, 0, STACK
        LOCFRAME PSTACK, 0, STACK
        LOCFRAME XSTACK, 17, STACK
        LOCFRAME IOVERLAY, 0, STATIC
        LOCFRAME DOVERLAY, 0, STATIC
        ARGFRAME ISTACK, 0, STACK
        ARGFRAME PSTACK, 0, STACK
        ARGFRAME XSTACK, 17, STACK
        ARGFRAME IOVERLAY, 0, STATIC
        ARGFRAME DOVERLAY, 0, STATIC
        FUNCALL zclSerializeData, osal_memcpy
        LOCFRAME ISTACK, 0, STACK
        LOCFRAME PSTACK, 0, STACK
        LOCFRAME XSTACK, 17, STACK
        LOCFRAME IOVERLAY, 0, STATIC
        LOCFRAME DOVERLAY, 0, STATIC
        ARGFRAME ISTACK, 0, STACK
        ARGFRAME PSTACK, 0, STACK
        ARGFRAME XSTACK, 17, STACK
        ARGFRAME IOVERLAY, 0, STATIC
        ARGFRAME DOVERLAY, 0, STATIC
        FUNCALL zclSerializeData, osal_memcpy
        LOCFRAME ISTACK, 0, STACK
        LOCFRAME PSTACK, 0, STACK
        LOCFRAME XSTACK, 17, STACK
        LOCFRAME IOVERLAY, 0, STATIC
        LOCFRAME DOVERLAY, 0, STATIC
        ARGFRAME ISTACK, 0, STACK
        ARGFRAME PSTACK, 0, STACK
        ARGFRAME XSTACK, 17, STACK
        ARGFRAME IOVERLAY, 0, STATIC
        ARGFRAME DOVERLAY, 0, STATIC
        FUNCALL zclSerializeData, osal_memcpy
        LOCFRAME ISTACK, 0, STACK
        LOCFRAME PSTACK, 0, STACK
        LOCFRAME XSTACK, 17, STACK
        LOCFRAME IOVERLAY, 0, STATIC
        LOCFRAME DOVERLAY, 0, STATIC
        ARGFRAME ISTACK, 0, STACK
        ARGFRAME PSTACK, 0, STACK
        ARGFRAME XSTACK, 17, STACK
        ARGFRAME IOVERLAY, 0, STATIC
        ARGFRAME DOVERLAY, 0, STATIC
        FUNCALL zclSerializeData, osal_memcpy
        LOCFRAME ISTACK, 0, STACK
        LOCFRAME PSTACK, 0, STACK
        LOCFRAME XSTACK, 17, STACK
        LOCFRAME IOVERLAY, 0, STATIC
        LOCFRAME DOVERLAY, 0, STATIC
        ARGFRAME ISTACK, 0, STACK
        ARGFRAME PSTACK, 0, STACK
        ARGFRAME XSTACK, 17, STACK
        ARGFRAME IOVERLAY, 0, STATIC
        ARGFRAME DOVERLAY, 0, STATIC
        REQUIRE ?V0
        REQUIRE ?V1
        REQUIRE ?V2
        REQUIRE ?V3
        REQUIRE ?V4
        REQUIRE ?V5
        MOV     A,#-0xe
        LCALL   ?BANKED_ENTER_XDATA
          CFI DPH0 load(1, XDATA, add(CFA_XSP16, literal(-1)))
          CFI DPL0 load(1, XDATA, add(CFA_XSP16, literal(-2)))
          CFI ?BRET_EXT load(1, XDATA, add(CFA_XSP16, literal(-3)))
          CFI ?RET_HIGH load(1, XDATA, add(CFA_XSP16, literal(-4)))
          CFI ?RET_LOW load(1, XDATA, add(CFA_XSP16, literal(-5)))
          CFI R7 load(1, XDATA, add(CFA_XSP16, literal(-6)))
          CFI V5 load(1, XDATA, add(CFA_XSP16, literal(-7)))
          CFI V4 load(1, XDATA, add(CFA_XSP16, literal(-8)))
          CFI V3 load(1, XDATA, add(CFA_XSP16, literal(-9)))
          CFI V2 load(1, XDATA, add(CFA_XSP16, literal(-10)))
          CFI V1 load(1, XDATA, add(CFA_XSP16, literal(-11)))
          CFI V0 load(1, XDATA, add(CFA_XSP16, literal(-12)))
          CFI VB load(1, XDATA, add(CFA_XSP16, literal(-13)))
          CFI R6 load(1, XDATA, add(CFA_XSP16, literal(-14)))
          CFI CFA_SP SP+0
          CFI CFA_XSP16 add(XSP16, 14)
        ; Saved register size: 14
        ; Auto size: 0
        MOV     A,R1
        MOV     R6,A
        MOV     ?V4,R2
        MOV     ?V5,R3
        MOV     A,R4
        MOV     R2,A
        MOV     A,R5
        MOV     R3,A
//  137   uint8 *pStr;
//  138   uint16 len;
//  139 
//  140   if ( attrData == NULL )
        MOV     A,?V4
        ORL     A,?V5
        JNZ     $+5
        LJMP    ??zclSerializeData_0 & 0xFFFF
//  141   {
//  142     return ( buf );
//  143   }
//  144 
//  145   switch ( dataType )
        MOV     DPL,R2
        MOV     DPH,R3
        INC     DPTR
        MOV     R4,DPL
        MOV     R5,DPH
        MOV     ?V0,?V4
        MOV     ?V1,?V5
        MOV     ?V2,#0x0
        MOV     A,R6
        LCALL   ?UC_SWITCH_SPARSE
`?<Jumptable for zclSerializeData>_0`:
        DATA
        DATA8
        DATA
        DATA8
        DATA
        DATA8
        DB        4
        DATA
        DATA8
        DATA
        DATA8
        DATA
        DATA8
        DB        65
        DATA
        DATA8
        DATA
        DATA8
        DB        66
        DATA
        DATA16
        DATA
        DATA16
        DATA
        DATA16
        DW        ??zclSerializeData_1
        DATA
        DATA8
        DATA
        DATA8
        DATA
        DATA8
        DB        67
        DATA
        DATA8
        DATA
        DATA8
        DB        68
        DATA
        DATA16
        DATA
        DATA16
        DATA
        DATA16
        DW        ??zclSerializeData_2
        DATA
        DATA8
        DATA
        DATA8
        DATA
        DATA8
        DB        224
        DATA
        DATA8
        DATA
        DATA8
        DB        226
        DATA
        DATA16
        DATA
        DATA16
        DATA
        DATA16
        DW        ??zclSerializeData_3
        DATA
        DATA8
        DATA
        DATA8
        DATA
        DATA8
        DB        232
        DATA
        DATA8
        DATA
        DATA8
        DB        233
        DATA
        DATA16
        DATA
        DATA16
        DATA
        DATA16
        DW        ??zclSerializeData_4
        DATA
        DATA8
        DATA
        DATA8
        DATA
        DATA8
        DB        26
        DATA
        DATA8
        DATA
        DATA8
        DATA
        DATA8
        DB        8
        DATA
        DATA16
        DATA
        DATA16
        DATA
        DATA16
        DW        ??zclSerializeData_5
        DATA
        DATA8
        DATA
        DATA8
        DATA
        DATA8
        DB        9
        DATA
        DATA16
        DATA
        DATA16
        DATA
        DATA16
        DW        ??zclSerializeData_4
        DATA
        DATA8
        DATA
        DATA8
        DATA
        DATA8
        DB        10
        DATA
        DATA16
        DATA
        DATA16
        DATA
        DATA16
        DW        ??zclSerializeData_6
        DATA
        DATA8
        DATA
        DATA8
        DATA
        DATA8
        DB        11
        DATA
        DATA16
        DATA
        DATA16
        DATA
        DATA16
        DW        ??zclSerializeData_3
        DATA
        DATA8
        DATA
        DATA8
        DATA
        DATA8
        DB        16
        DATA
        DATA16
        DATA
        DATA16
        DATA
        DATA16
        DW        ??zclSerializeData_5
        DATA
        DATA8
        DATA
        DATA8
        DATA
        DATA8
        DB        24
        DATA
        DATA16
        DATA
        DATA16
        DATA
        DATA16
        DW        ??zclSerializeData_5
        DATA
        DATA8
        DATA
        DATA8
        DATA
        DATA8
        DB        25
        DATA
        DATA16
        DATA
        DATA16
        DATA
        DATA16
        DW        ??zclSerializeData_4
        DATA
        DATA8
        DATA
        DATA8
        DATA
        DATA8
        DB        26
        DATA
        DATA16
        DATA
        DATA16
        DATA
        DATA16
        DW        ??zclSerializeData_6
        DATA
        DATA8
        DATA
        DATA8
        DATA
        DATA8
        DB        27
        DATA
        DATA16
        DATA
        DATA16
        DATA
        DATA16
        DW        ??zclSerializeData_3
        DATA
        DATA8
        DATA
        DATA8
        DATA
        DATA8
        DB        32
        DATA
        DATA16
        DATA
        DATA16
        DATA
        DATA16
        DW        ??zclSerializeData_5
        DATA
        DATA8
        DATA
        DATA8
        DATA
        DATA8
        DB        33
        DATA
        DATA16
        DATA
        DATA16
        DATA
        DATA16
        DW        ??zclSerializeData_4
        DATA
        DATA8
        DATA
        DATA8
        DATA
        DATA8
        DB        34
        DATA
        DATA16
        DATA
        DATA16
        DATA
        DATA16
        DW        ??zclSerializeData_6
        DATA
        DATA8
        DATA
        DATA8
        DATA
        DATA8
        DB        35
        DATA
        DATA16
        DATA
        DATA16
        DATA
        DATA16
        DW        ??zclSerializeData_3
        DATA
        DATA8
        DATA
        DATA8
        DATA
        DATA8
        DB        36
        DATA
        DATA16
        DATA
        DATA16
        DATA
        DATA16
        DW        ??zclSerializeData_7
        DATA
        DATA8
        DATA
        DATA8
        DATA
        DATA8
        DB        37
        DATA
        DATA16
        DATA
        DATA16
        DATA
        DATA16
        DW        ??zclSerializeData_8
        DATA
        DATA8
        DATA
        DATA8
        DATA
        DATA8
        DB        40
        DATA
        DATA16
        DATA
        DATA16
        DATA
        DATA16
        DW        ??zclSerializeData_5
        DATA
        DATA8
        DATA
        DATA8
        DATA
        DATA8
        DB        41
        DATA
        DATA16
        DATA
        DATA16
        DATA
        DATA16
        DW        ??zclSerializeData_4
        DATA
        DATA8
        DATA
        DATA8
        DATA
        DATA8
        DB        42
        DATA
        DATA16
        DATA
        DATA16
        DATA
        DATA16
        DW        ??zclSerializeData_6
        DATA
        DATA8
        DATA
        DATA8
        DATA
        DATA8
        DB        43
        DATA
        DATA16
        DATA
        DATA16
        DATA
        DATA16
        DW        ??zclSerializeData_3
        DATA
        DATA8
        DATA
        DATA8
        DATA
        DATA8
        DB        48
        DATA
        DATA16
        DATA
        DATA16
        DATA
        DATA16
        DW        ??zclSerializeData_5
        DATA
        DATA8
        DATA
        DATA8
        DATA
        DATA8
        DB        49
        DATA
        DATA16
        DATA
        DATA16
        DATA
        DATA16
        DW        ??zclSerializeData_4
        DATA
        DATA8
        DATA
        DATA8
        DATA
        DATA8
        DB        56
        DATA
        DATA16
        DATA
        DATA16
        DATA
        DATA16
        DW        ??zclSerializeData_4
        DATA
        DATA8
        DATA
        DATA8
        DATA
        DATA8
        DB        57
        DATA
        DATA16
        DATA
        DATA16
        DATA
        DATA16
        DW        ??zclSerializeData_3
        DATA
        DATA8
        DATA
        DATA8
        DATA
        DATA8
        DB        234
        DATA
        DATA16
        DATA
        DATA16
        DATA
        DATA16
        DW        ??zclSerializeData_3
        DATA
        DATA8
        DATA
        DATA8
        DATA
        DATA8
        DB        240
        DATA
        DATA16
        DATA
        DATA16
        DATA
        DATA16
        DW        ??zclSerializeData_9
        DATA
        DATA8
        DATA
        DATA8
        DATA
        DATA8
        DB        241
        DATA
        DATA16
        DATA
        DATA16
        DATA
        DATA16
        DW        ??zclSerializeData_10
        DATA
        DATA16
        DATA
        DATA16
        DW        ??zclSerializeData_0
        CODE
//  146   {
//  147     case ZCL_DATATYPE_DATA8:
//  148     case ZCL_DATATYPE_BOOLEAN:
//  149     case ZCL_DATATYPE_BITMAP8:
//  150     case ZCL_DATATYPE_INT8:
//  151     case ZCL_DATATYPE_UINT8:
//  152     case ZCL_DATATYPE_ENUM8:
//  153       *buf++ = *((uint8 *)attrData);
??zclSerializeData_5:
        MOV     DPL,?V4
        MOV     DPH,?V5
        MOVX    A,@DPTR
        MOV     DPL,R2
        MOV     DPH,R3
        MOVX    @DPTR,A
        MOV     A,R4
        MOV     R2,A
        MOV     A,R5
        MOV     R3,A
//  154        break;
        LJMP    ??zclSerializeData_0 & 0xFFFF
//  155 
//  156     case ZCL_DATATYPE_DATA16:
//  157     case ZCL_DATATYPE_BITMAP16:
//  158     case ZCL_DATATYPE_UINT16:
//  159     case ZCL_DATATYPE_INT16:
//  160     case ZCL_DATATYPE_ENUM16:
//  161     case ZCL_DATATYPE_SEMI_PREC:
//  162     case ZCL_DATATYPE_CLUSTER_ID:
//  163     case ZCL_DATATYPE_ATTR_ID:
//  164       *buf++ = LO_UINT16( *((uint16*)attrData) );
??zclSerializeData_4:
        MOV     DPL,?V4
        MOV     DPH,?V5
        MOVX    A,@DPTR
        MOV     DPL,R2
        MOV     DPH,R3
        LCALL   ?Subroutine0 & 0xFFFF
//  165       *buf++ = HI_UINT16( *((uint16*)attrData) );
??CrossCallReturnLabel_0:
        INC     DPTR
        MOVX    A,@DPTR
        MOV     DPL,R2
        MOV     DPH,R3
        SJMP    ??zclSerializeData_11
//  166       break;
//  167 
//  168     case ZCL_DATATYPE_DATA24:
//  169     case ZCL_DATATYPE_BITMAP24:
//  170     case ZCL_DATATYPE_UINT24:
//  171     case ZCL_DATATYPE_INT24:
//  172       *buf++ = BREAK_UINT32( *((uint32*)attrData), 0 );
??zclSerializeData_6:
        MOV     DPL,?V4
        MOV     DPH,?V5
        MOV     R0,#?V0
        LCALL   ?L_MOV_X
        MOV     DPL,R2
        MOV     DPH,R3
        MOV     A,?V0
        LCALL   ?Subroutine0 & 0xFFFF
//  173       *buf++ = BREAK_UINT32( *((uint32*)attrData), 1 );
??CrossCallReturnLabel_1:
        MOV     R0,#?V0
        LCALL   ?L_MOV_X
        MOV     A,?V1
        MOV     DPL,R2
        MOV     DPH,R3
        MOVX    @DPTR,A
        INC     DPTR
        INC     R2
        MOV     R3,DPH
//  174       *buf++ = BREAK_UINT32( *((uint32*)attrData), 2 );
        MOV     DPL,?V4
        MOV     DPH,?V5
        MOV     R0,#?V0
        LCALL   ?L_MOV_X
        MOV     A,#0x10
        MOV     R0,#?V0
        LCALL   ?UL_SHR
        MOV     DPL,R2
        MOV     DPH,R3
        MOV     A,?V0
??zclSerializeData_11:
        MOVX    @DPTR,A
        INC     DPTR
        INC     R2
        MOV     R3,DPH
//  175       break;
        SJMP    ??zclSerializeData_0
//  176 
//  177     case ZCL_DATATYPE_DATA32:
//  178     case ZCL_DATATYPE_BITMAP32:
//  179     case ZCL_DATATYPE_UINT32:
//  180     case ZCL_DATATYPE_INT32:
//  181     case ZCL_DATATYPE_SINGLE_PREC:
//  182     case ZCL_DATATYPE_TOD:
//  183     case ZCL_DATATYPE_DATE:
//  184     case ZCL_DATATYPE_UTC:
//  185     case ZCL_DATATYPE_BAC_OID:
//  186       buf = osal_buffer_uint32( buf, *((uint32*)attrData) );
??zclSerializeData_3:
        ; Setup parameters for call to function osal_buffer_uint32
        MOV     DPL,?V4
        MOV     DPH,?V5
        LCALL   ?PUSH_XSTACK8_X_FOUR
          CFI CFA_XSP16 add(XSP16, 18)
        LCALL   ??osal_buffer_uint32?relay; Banked call to: osal_buffer_uint32
        MOV     A,#0x4
        LCALL   ?DEALLOC_XSTACK8
          CFI CFA_XSP16 add(XSP16, 14)
//  187       break;
        SJMP    ??zclSerializeData_0
//  188 
//  189     case ZCL_DATATYPE_UINT40:
//  190       pStr = (uint8*)attrData;
//  191       buf = (unsigned char *)osal_memcpy( buf, pStr, 5 );
??zclSerializeData_7:
        ; Setup parameters for call to function osal_memcpy
        MOV     R0,#?V0
        LCALL   ?PUSH_XSTACK_I_THREE
          CFI CFA_XSP16 add(XSP16, 17)
        MOV     R4,#0x5
        SJMP    ??zclSerializeData_12
          CFI CFA_XSP16 add(XSP16, 14)
//  192       break;
//  193 
//  194     case ZCL_DATATYPE_UINT48:
//  195       pStr = (uint8*)attrData;
//  196       buf = (unsigned char *)osal_memcpy( buf, pStr, 6 );
??zclSerializeData_8:
        ; Setup parameters for call to function osal_memcpy
        MOV     R0,#?V0
        LCALL   ?PUSH_XSTACK_I_THREE
          CFI CFA_XSP16 add(XSP16, 17)
        MOV     R4,#0x6
        SJMP    ??zclSerializeData_12
          CFI CFA_XSP16 add(XSP16, 14)
//  197       break;
//  198 
//  199     case ZCL_DATATYPE_IEEE_ADDR:
//  200       pStr = (uint8*)attrData;
//  201       buf = (unsigned char *)osal_memcpy( buf, pStr, 8 );
??zclSerializeData_9:
        ; Setup parameters for call to function osal_memcpy
        MOV     R0,#?V0
        LCALL   ?PUSH_XSTACK_I_THREE
          CFI CFA_XSP16 add(XSP16, 17)
        MOV     R4,#0x8
        SJMP    ??zclSerializeData_12
          CFI CFA_XSP16 add(XSP16, 14)
//  202       break;
//  203 
//  204     case ZCL_DATATYPE_CHAR_STR:
//  205     case ZCL_DATATYPE_OCTET_STR:
//  206       pStr = (uint8*)attrData;
//  207       len = *pStr;
//  208       buf = (unsigned char *)osal_memcpy( buf, pStr, len+1 ); // Including length field
??zclSerializeData_1:
        ; Setup parameters for call to function osal_memcpy
        MOV     R0,#?V0
        LCALL   ?PUSH_XSTACK_I_THREE
          CFI CFA_XSP16 add(XSP16, 17)
        MOV     DPL,?V4
        MOV     DPH,?V5
        MOVX    A,@DPTR
        ADD     A,#0x1
        MOV     R4,A
        CLR     A
        ADDC    A,#0x0
        SJMP    ??zclSerializeData_13
          CFI CFA_XSP16 add(XSP16, 14)
//  209       break;
//  210 
//  211     case ZCL_DATATYPE_LONG_CHAR_STR:
//  212     case ZCL_DATATYPE_LONG_OCTET_STR:
//  213       pStr = (uint8*)attrData;
//  214       len = BUILD_UINT16( pStr[0], pStr[1] );
//  215       buf = (unsigned char *)osal_memcpy( buf, pStr, len+2 ); // Including length field
??zclSerializeData_2:
        ; Setup parameters for call to function osal_memcpy
        MOV     R0,#?V0
        LCALL   ?PUSH_XSTACK_I_THREE
          CFI CFA_XSP16 add(XSP16, 17)
        MOV     DPL,?V4
        MOV     DPH,?V5
        LCALL   ?Subroutine1 & 0xFFFF
??CrossCallReturnLabel_3:
        MOV     R4,A
        CLR     A
        ADDC    A,R1
??zclSerializeData_13:
        MOV     R5,A
        SJMP    ??zclSerializeData_14
          CFI CFA_XSP16 add(XSP16, 14)
//  216       break;
//  217 
//  218     case ZCL_DATATYPE_128_BIT_SEC_KEY:
//  219       pStr = (uint8*)attrData;
//  220       buf = (unsigned char *)osal_memcpy( buf, pStr, SEC_KEY_LEN );
??zclSerializeData_10:
        ; Setup parameters for call to function osal_memcpy
        MOV     R0,#?V0
        LCALL   ?PUSH_XSTACK_I_THREE
          CFI CFA_XSP16 add(XSP16, 17)
        MOV     R4,#0x10
??zclSerializeData_12:
        MOV     R5,#0x0
??zclSerializeData_14:
        LCALL   ??osal_memcpy?relay  ; Banked call to: osal_memcpy
        MOV     A,#0x3
        LCALL   ?DEALLOC_XSTACK8
          CFI CFA_XSP16 add(XSP16, 14)
//  221       break;
//  222 
//  223     case ZCL_DATATYPE_NO_DATA:
//  224     case ZCL_DATATYPE_UNKNOWN:
//  225       // Fall through
//  226 
//  227     default:
//  228       break;
//  229   }
//  230 
//  231   return ( buf );
??zclSerializeData_0:
        MOV     R7,#0x6
        LJMP    ?BANKED_LEAVE_XDATA
          CFI EndBlock cfiBlock2
//  232 }

        RSEG BANKED_CODE:CODE:NOROOT(0)
?Subroutine1:
          CFI Block cfiCond3 Using cfiCommon0
          CFI Function zclGetAttrDataLength
          CFI Conditional ??CrossCallReturnLabel_2
          CFI R6 load(1, XDATA, add(CFA_XSP16, literal(-9)))
          CFI VB load(1, XDATA, add(CFA_XSP16, literal(-8)))
          CFI V0 load(1, XDATA, add(CFA_XSP16, literal(-7)))
          CFI R7 load(1, XDATA, add(CFA_XSP16, literal(-6)))
          CFI ?RET_LOW load(1, XDATA, add(CFA_XSP16, literal(-5)))
          CFI ?RET_HIGH load(1, XDATA, add(CFA_XSP16, literal(-4)))
          CFI ?BRET_EXT load(1, XDATA, add(CFA_XSP16, literal(-3)))
          CFI DPL0 load(1, XDATA, add(CFA_XSP16, literal(-2)))
          CFI DPH0 load(1, XDATA, add(CFA_XSP16, literal(-1)))
          CFI CFA_SP SP+-2
          CFI CFA_XSP16 add(XSP16, 9)
          CFI Block cfiCond4 Using cfiCommon0
          CFI (cfiCond4) Function zclSerializeData
          CFI (cfiCond4) Conditional ??CrossCallReturnLabel_3
          CFI (cfiCond4) R6 load(1, XDATA, add(CFA_XSP16, literal(-14)))
          CFI (cfiCond4) VB load(1, XDATA, add(CFA_XSP16, literal(-13)))
          CFI (cfiCond4) V0 load(1, XDATA, add(CFA_XSP16, literal(-12)))
          CFI (cfiCond4) V1 load(1, XDATA, add(CFA_XSP16, literal(-11)))
          CFI (cfiCond4) V2 load(1, XDATA, add(CFA_XSP16, literal(-10)))
          CFI (cfiCond4) V3 load(1, XDATA, add(CFA_XSP16, literal(-9)))
          CFI (cfiCond4) V4 load(1, XDATA, add(CFA_XSP16, literal(-8)))
          CFI (cfiCond4) V5 load(1, XDATA, add(CFA_XSP16, literal(-7)))
          CFI (cfiCond4) R7 load(1, XDATA, add(CFA_XSP16, literal(-6)))
          CFI (cfiCond4) ?RET_LOW load(1, XDATA, add(CFA_XSP16, literal(-5)))
          CFI (cfiCond4) ?RET_HIGH load(1, XDATA, add(CFA_XSP16, literal(-4)))
          CFI (cfiCond4) ?BRET_EXT load(1, XDATA, add(CFA_XSP16, literal(-3)))
          CFI (cfiCond4) DPL0 load(1, XDATA, add(CFA_XSP16, literal(-2)))
          CFI (cfiCond4) DPH0 load(1, XDATA, add(CFA_XSP16, literal(-1)))
          CFI (cfiCond4) CFA_SP SP+-2
          CFI (cfiCond4) CFA_XSP16 add(XSP16, 17)
          CFI Block cfiPicker5 Using cfiCommon1
          CFI (cfiPicker5) NoFunction
          CFI (cfiPicker5) Picker
        MOVX    A,@DPTR
        MOV     R4,A
        INC     DPTR
        MOVX    A,@DPTR
        MOV     R1,A
        MOV     A,R4
        ADD     A,#0x2
        RET
          CFI EndBlock cfiCond3
          CFI EndBlock cfiCond4
          CFI EndBlock cfiPicker5

        RSEG BANKED_CODE:CODE:NOROOT(0)
?Subroutine0:
          CFI Block cfiCond6 Using cfiCommon0
          CFI Function zclSerializeData
          CFI Conditional ??CrossCallReturnLabel_0
          CFI R6 load(1, XDATA, add(CFA_XSP16, literal(-14)))
          CFI VB load(1, XDATA, add(CFA_XSP16, literal(-13)))
          CFI V0 load(1, XDATA, add(CFA_XSP16, literal(-12)))
          CFI V1 load(1, XDATA, add(CFA_XSP16, literal(-11)))
          CFI V2 load(1, XDATA, add(CFA_XSP16, literal(-10)))
          CFI V3 load(1, XDATA, add(CFA_XSP16, literal(-9)))
          CFI V4 load(1, XDATA, add(CFA_XSP16, literal(-8)))
          CFI V5 load(1, XDATA, add(CFA_XSP16, literal(-7)))
          CFI R7 load(1, XDATA, add(CFA_XSP16, literal(-6)))
          CFI ?RET_LOW load(1, XDATA, add(CFA_XSP16, literal(-5)))
          CFI ?RET_HIGH load(1, XDATA, add(CFA_XSP16, literal(-4)))
          CFI ?BRET_EXT load(1, XDATA, add(CFA_XSP16, literal(-3)))
          CFI DPL0 load(1, XDATA, add(CFA_XSP16, literal(-2)))
          CFI DPH0 load(1, XDATA, add(CFA_XSP16, literal(-1)))
          CFI CFA_SP SP+-2
          CFI CFA_XSP16 add(XSP16, 14)
          CFI Block cfiCond7 Using cfiCommon0
          CFI (cfiCond7) Function zclSerializeData
          CFI (cfiCond7) Conditional ??CrossCallReturnLabel_1
          CFI (cfiCond7) R6 load(1, XDATA, add(CFA_XSP16, literal(-14)))
          CFI (cfiCond7) VB load(1, XDATA, add(CFA_XSP16, literal(-13)))
          CFI (cfiCond7) V0 load(1, XDATA, add(CFA_XSP16, literal(-12)))
          CFI (cfiCond7) V1 load(1, XDATA, add(CFA_XSP16, literal(-11)))
          CFI (cfiCond7) V2 load(1, XDATA, add(CFA_XSP16, literal(-10)))
          CFI (cfiCond7) V3 load(1, XDATA, add(CFA_XSP16, literal(-9)))
          CFI (cfiCond7) V4 load(1, XDATA, add(CFA_XSP16, literal(-8)))
          CFI (cfiCond7) V5 load(1, XDATA, add(CFA_XSP16, literal(-7)))
          CFI (cfiCond7) R7 load(1, XDATA, add(CFA_XSP16, literal(-6)))
          CFI (cfiCond7) ?RET_LOW load(1, XDATA, add(CFA_XSP16, literal(-5)))
          CFI (cfiCond7) ?RET_HIGH load(1, XDATA, add(CFA_XSP16, literal(-4)))
          CFI (cfiCond7) ?BRET_EXT load(1, XDATA, add(CFA_XSP16, literal(-3)))
          CFI (cfiCond7) DPL0 load(1, XDATA, add(CFA_XSP16, literal(-2)))
          CFI (cfiCond7) DPH0 load(1, XDATA, add(CFA_XSP16, literal(-1)))
          CFI (cfiCond7) CFA_SP SP+-2
          CFI (cfiCond7) CFA_XSP16 add(XSP16, 14)
          CFI Block cfiPicker8 Using cfiCommon1
          CFI (cfiPicker8) NoFunction
          CFI (cfiPicker8) Picker
        MOVX    @DPTR,A
        MOV     A,R4
        MOV     R2,A
        MOV     A,R5
        MOV     R3,A
        MOV     DPL,?V4
        MOV     DPH,?V5
        RET
          CFI EndBlock cfiCond6
          CFI EndBlock cfiCond7
          CFI EndBlock cfiPicker8

        RSEG BANK_RELAYS:CODE:REORDER:NOROOT(0)
??zclGetAttrDataLength?relay:
        CODE
        LCALL   ?BDISPATCH
        DATA24
        DC24    zclGetAttrDataLength

        RSEG BANK_RELAYS:CODE:REORDER:NOROOT(0)
??zclGetDataTypeLength?relay:
        CODE
        LCALL   ?BDISPATCH
        DATA24
        DC24    zclGetDataTypeLength

        RSEG BANK_RELAYS:CODE:REORDER:NOROOT(0)
??zclSerializeData?relay:
        CODE
        LCALL   ?BDISPATCH
        DATA24
        DC24    zclSerializeData

        END
//  233 
// 
// 612 bytes in segment BANKED_CODE
//  18 bytes in segment BANK_RELAYS
// 
// 630 bytes of CODE memory
//
//Errors: none
//Warnings: none
