///////////////////////////////////////////////////////////////////////////////
//                                                                            /
// IAR C/C++ Compiler V8.30.1.41636 for 8051            15/Oct/2015  21:15:43 /
// Copyright 2004-2013 IAR Systems AB.                                        /
//                                                                            /
//    Core               =  plain                                             /
//    Code model         =  banked                                            /
//    Data model         =  large                                             /
//    Calling convention =  xdata reentrant                                   /
//    Constant location  =  data_rom                                          /
//    Dptr setup         =  1,16                                              /
//                                                                            /
//    Source file        =  C:\Users\paolo\Documents\GitHub\zpowermeter\firmw /
//                          are\Components\stack\zcl\zcl.c                    /
//    Command line       =  -f C:\Users\paolo\Documents\GitHub\zpowermeter\fi /
//                          rmware\CC2530DB\..\Tools\f8wRouter.cfg            /
//                          (-DCPU32MHZ -DROOT=__near_func                    /
//                          -DMAC_CFG_APP_PENDING_QUEUE=TRUE                  /
//                          -DMAC_CFG_TX_DATA_MAX=5 -DMAC_CFG_TX_MAX=8        /
//                          -DMAC_CFG_RX_MAX=5 -DRTR_NWK) -f                  /
//                          C:\Users\paolo\Documents\GitHub\zpowermeter\firmw /
//                          are\CC2530DB\..\Tools\f8wConfig.cfg (-DZIGBEEPRO  /
//                          -DSECURE=0 -DZG_SECURE_DYNAMIC=0 -DREFLECTOR      /
//                          -DDEFAULT_CHANLIST=0x00000800                     /
//                          -DZDAPP_CONFIG_PAN_ID=0xFFFF                      /
//                          -DNWK_START_DELAY=100 -DEXTENDED_JOINING_RANDOM_M /
//                          ASK=0x007F -DBEACON_REQUEST_DELAY=100             /
//                          -DBEACON_REQ_DELAY_MASK=0x00FF                    /
//                          -DLINK_STATUS_JITTER_MASK=0x007F                  /
//                          -DROUTE_EXPIRY_TIME=30 -DAPSC_ACK_WAIT_DURATION_P /
//                          OLLED=3000 -DNWK_INDIRECT_MSG_TIMEOUT=7           /
//                          -DMAX_RREQ_ENTRIES=8 -DAPSC_MAX_FRAME_RETRIES=3   /
//                          -DNWK_MAX_DATA_RETRIES=2                          /
//                          -DMAX_POLL_FAILURE_RETRIES=2 -DMAX_BCAST=9        /
//                          -DAPS_MAX_GROUPS=16 -DMAX_RTG_ENTRIES=40          /
//                          -DNWK_MAX_BINDING_ENTRIES=4                       /
//                          -DMAX_BINDING_CLUSTER_IDS=4                       /
//                          "-DDEFAULT_KEY={0x01, 0x03, 0x05, 0x07, 0x09,     /
//                          0x0B, 0x0D, 0x0F, 0x00, 0x02, 0x04, 0x06, 0x08,   /
//                          0x0A, 0x0C, 0x0D}" -DMAC_MAX_FRAME_SIZE=116       /
//                          -DZDNWKMGR_MIN_TRANSMISSIONS=20 "-DCONST=const    /
//                          __code" -DGENERIC=__generic                       /
//                          -DRFD_RCVC_ALWAYS_ON=FALSE -DPOLL_RATE=5000       /
//                          -DQUEUED_POLL_RATE=100 -DRESPONSE_POLL_RATE=100   /
//                          -DREJOIN_POLL_RATE=440) -f                        /
//                          C:\Users\paolo\Documents\GitHub\zpowermeter\firmw /
//                          are\CC2530DB\..\Tools\f8wZCL.cfg                  /
//                          C:\Users\paolo\Documents\GitHub\zpowermeter\firmw /
//                          are\Components\stack\zcl\zcl.c -D SECURE=0 -D     /
//                          OSC32K_CRYSTAL_INSTALLED=FALSE -D HAL_KEY=FALSE   /
//                          -D HAL_BOARD_CC2530EB_REV17 -D TC_LINKKEY_JOIN    /
//                          -D NV_INIT -D xNV_RESTORE -D                      /
//                          MULTICAST_ENABLED=FALSE -D ZCL_READ -D ZCL_WRITE  /
//                          -D ZCL_REPORT -D FEATURE_SYSTEM_STATS -lC         /
//                          C:\Users\paolo\Documents\GitHub\zpowermeter\firmw /
//                          are\CC2530DB\RouterEB\List\ -lA                   /
//                          C:\Users\paolo\Documents\GitHub\zpowermeter\firmw /
//                          are\CC2530DB\RouterEB\List\ --diag_suppress       /
//                          Pe001,Pa010 -o C:\Users\paolo\Documents\GitHub\zp /
//                          owermeter\firmware\CC2530DB\RouterEB\Obj\ -e      /
//                          --debug --core=plain --dptr=16,1                  /
//                          --data_model=large --code_model=banked            /
//                          --calling_convention=xdata_reentrant              /
//                          --place_constants=data_rom --nr_virtual_regs 16   /
//                          -I C:\Users\paolo\Documents\GitHub\zpowermeter\fi /
//                          rmware\CC2530DB\ -I C:\Users\paolo\Documents\GitH /
//                          ub\zpowermeter\firmware\CC2530DB\..\Source\ -I    /
//                          C:\Users\paolo\Documents\GitHub\zpowermeter\firmw /
//                          are\CC2530DB\..\Source\ha\ -I                     /
//                          C:\Users\paolo\Documents\GitHub\zpowermeter\firmw /
//                          are\CC2530DB\..\Source\zmain\ -I                  /
//                          C:\Users\paolo\Documents\GitHub\zpowermeter\firmw /
//                          are\CC2530DB\..\Components\hal\include\ -I        /
//                          C:\Users\paolo\Documents\GitHub\zpowermeter\firmw /
//                          are\CC2530DB\..\Components\hal\target\CC2530EB\   /
//                          -I C:\Users\paolo\Documents\GitHub\zpowermeter\fi /
//                          rmware\CC2530DB\..\Components\mac\include\ -I     /
//                          C:\Users\paolo\Documents\GitHub\zpowermeter\firmw /
//                          are\CC2530DB\..\Components\mac\high_level\ -I     /
//                          C:\Users\paolo\Documents\GitHub\zpowermeter\firmw /
//                          are\CC2530DB\..\Components\mac\low_level\srf04\   /
//                          -I C:\Users\paolo\Documents\GitHub\zpowermeter\fi /
//                          rmware\CC2530DB\..\Components\mac\low_level\srf04 /
//                          \single_chip\ -I C:\Users\paolo\Documents\GitHub\ /
//                          zpowermeter\firmware\CC2530DB\..\Components\mt\   /
//                          -I C:\Users\paolo\Documents\GitHub\zpowermeter\fi /
//                          rmware\CC2530DB\..\Components\osal\include\ -I    /
//                          C:\Users\paolo\Documents\GitHub\zpowermeter\firmw /
//                          are\CC2530DB\..\Components\services\saddr\ -I     /
//                          C:\Users\paolo\Documents\GitHub\zpowermeter\firmw /
//                          are\CC2530DB\..\Components\services\sdata\ -I     /
//                          C:\Users\paolo\Documents\GitHub\zpowermeter\firmw /
//                          are\CC2530DB\..\Components\stack\af\ -I           /
//                          C:\Users\paolo\Documents\GitHub\zpowermeter\firmw /
//                          are\CC2530DB\..\Components\stack\nwk\ -I          /
//                          C:\Users\paolo\Documents\GitHub\zpowermeter\firmw /
//                          are\CC2530DB\..\Components\stack\sapi\ -I         /
//                          C:\Users\paolo\Documents\GitHub\zpowermeter\firmw /
//                          are\CC2530DB\..\Components\stack\sec\ -I          /
//                          C:\Users\paolo\Documents\GitHub\zpowermeter\firmw /
//                          are\CC2530DB\..\Components\stack\sys\ -I          /
//                          C:\Users\paolo\Documents\GitHub\zpowermeter\firmw /
//                          are\CC2530DB\..\Components\stack\zcl\ -I          /
//                          C:\Users\paolo\Documents\GitHub\zpowermeter\firmw /
//                          are\CC2530DB\..\Components\stack\zdo\ -I          /
//                          C:\Users\paolo\Documents\GitHub\zpowermeter\firmw /
//                          are\CC2530DB\..\Components\zmac\ -I               /
//                          C:\Users\paolo\Documents\GitHub\zpowermeter\firmw /
//                          are\CC2530DB\..\Components\zmac\f8w\ -Ohz         /
//                          --require_prototypes                              /
//    List file          =  C:\Users\paolo\Documents\GitHub\zpowermeter\firmw /
//                          are\CC2530DB\RouterEB\List\zcl.s51                /
//                                                                            /
//                                                                            /
///////////////////////////////////////////////////////////////////////////////

        NAME zcl

        RTMODEL "__SystemLibrary", "CLib"
        RTMODEL "__calling_convention", "xdata_reentrant"
        RTMODEL "__code_model", "banked"
        RTMODEL "__core", "plain"
        RTMODEL "__data_model", "large"
        RTMODEL "__dptr_size", "16"
        RTMODEL "__extended_stack", "disabled"
        RTMODEL "__location_for_constants", "data"
        RTMODEL "__number_of_dptrs", "1"
        RTMODEL "__rt_version", "1"

        RSEG DOVERLAY:DATA:NOROOT(0)
        RSEG IOVERLAY:IDATA:NOROOT(0)
        RSEG ISTACK:IDATA:NOROOT(0)
        RSEG PSTACK:XDATA:NOROOT(0)
        RSEG XSTACK:XDATA:NOROOT(0)

        EXTERN ?V0
        EXTERN ?V1
        EXTERN ?V2
        EXTERN ?V3
        EXTERN ?V4
        EXTERN ?V5
        EXTERN ?V6
        EXTERN ?V7
        EXTERN ?V8
        EXTERN ?V9
        EXTERN ?V10
        EXTERN ?V12
        EXTERN ?V13
        EXTERN ?V14
        EXTERN ?V15
        EXTERN ?V11
        EXTERN ?ALLOC_XSTACK8
        EXTERN ?BANKED_ENTER_XDATA
        EXTERN ?BANKED_LEAVE_XDATA
        EXTERN ?BDISPATCH
        EXTERN ?BRET
        EXTERN ?CALL_IND
        EXTERN ?DEALLOC_XSTACK8
        EXTERN ?L_MOV_X
        EXTERN ?MOVE_LONG8_XDATA_CODE
        EXTERN ?MOVE_LONG8_XDATA_XDATA
        EXTERN ?PUSH_XSTACK8_X_FOUR
        EXTERN ?PUSH_XSTACK8_X_TWO
        EXTERN ?PUSH_XSTACK_I_ONE
        EXTERN ?PUSH_XSTACK_I_THREE
        EXTERN ?PUSH_XSTACK_I_TWO
        EXTERN ?S_SHL
        EXTERN ?UC_SWITCH_SPARSE
        EXTERN ?UL_SHR
        EXTERN ?US_DIV_MOD
        EXTERN ?US_SHR
        EXTERN ?XSP
        EXTERN ?XSTACK_DISP0_8
        EXTERN ?XSTACK_DISP100_8
        EXTERN ?XSTACK_DISP101_8
        EXTERN ?XSTACK_DISP102_8
        EXTERN __INIT_XDATA_I
        EXTERN __INIT_XDATA_Z

        PUBLIC ??zclAnalogDataType?relay
        FUNCTION ??zclAnalogDataType?relay,0203H
        FUNCTION ??zclAuthorizeWrite?relay,0203H
        FUNCTION ??zclBuildHdr?relay,0203H
        PUBLIC ??zclFindAttrRec?relay
        FUNCTION ??zclFindAttrRec?relay,0203H
        FUNCTION ??zclFindAttrRecsList?relay,0203H
        FUNCTION ??zclFindClusterOption?relay,0203H
        PUBLIC ??zclGetAttrDataLength?relay
        FUNCTION ??zclGetAttrDataLength?relay,0203H
        FUNCTION ??zclGetAttrDataLengthUsingCB?relay,0203H
        FUNCTION ??zclGetAuthorizeCB?relay,0203H
        FUNCTION ??zclGetClusterOption?relay,0203H
        PUBLIC ??zclGetDataTypeLength?relay
        FUNCTION ??zclGetDataTypeLength?relay,0203H
        FUNCTION ??zclGetReadWriteCB?relay,0203H
        PUBLIC ??zclParseHdr?relay
        FUNCTION ??zclParseHdr?relay,0203H
        PUBLIC ??zclParseInConfigReportCmd?relay
        FUNCTION ??zclParseInConfigReportCmd?relay,0203H
        FUNCTION ??zclParseInConfigReportRspCmd?relay,0203H
        FUNCTION ??zclParseInDefaultRspCmd?relay,0203H
        PUBLIC ??zclParseInReadCmd?relay
        FUNCTION ??zclParseInReadCmd?relay,0203H
        PUBLIC ??zclParseInReadReportCfgCmd?relay
        FUNCTION ??zclParseInReadReportCfgCmd?relay,0203H
        FUNCTION ??zclParseInReadReportCfgRspCmd?relay,0203H
        FUNCTION ??zclParseInReadRspCmd?relay,0203H
        PUBLIC ??zclParseInReportCmd?relay
        FUNCTION ??zclParseInReportCmd?relay,0203H
        PUBLIC ??zclParseInWriteCmd?relay
        FUNCTION ??zclParseInWriteCmd?relay,0203H
        FUNCTION ??zclParseInWriteRspCmd?relay,0203H
        FUNCTION ??zclProcessInReadCmd?relay,0203H
        FUNCTION ??zclProcessInWriteCmd?relay,0203H
        FUNCTION ??zclProcessInWriteUndividedCmd?relay,0203H
        PUBLIC ??zclReadAttrData?relay
        FUNCTION ??zclReadAttrData?relay,0203H
        FUNCTION ??zclReadAttrDataUsingCB?relay,0203H
        FUNCTION ??zclRevertWriteUndividedCmd?relay,0203H
        PUBLIC ??zclSerializeData?relay
        FUNCTION ??zclSerializeData?relay,0203H
        FUNCTION ??zclSetSecurityOption?relay,0203H
        FUNCTION ??zclWriteAttrData?relay,0203H
        FUNCTION ??zclWriteAttrDataUsingCB?relay,0203H
        FUNCTION ??zcl_BuildAnalogData?relay,0203H
        FUNCTION ??zcl_DeviceOperational?relay,0203H
        PUBLIC ??zcl_HandleExternal?relay
        FUNCTION ??zcl_HandleExternal?relay,0203H
        PUBLIC ??zcl_Init?relay
        FUNCTION ??zcl_Init?relay,0203H
        PUBLIC ??zcl_ProcessMessageMSG?relay
        FUNCTION ??zcl_ProcessMessageMSG?relay,0203H
        PUBLIC ??zcl_ReadAttrData?relay
        FUNCTION ??zcl_ReadAttrData?relay,0203H
        PUBLIC ??zcl_SendCommand?relay
        FUNCTION ??zcl_SendCommand?relay,0203H
        PUBLIC ??zcl_SendConfigReportCmd?relay
        FUNCTION ??zcl_SendConfigReportCmd?relay,0203H
        PUBLIC ??zcl_SendConfigReportRspCmd?relay
        FUNCTION ??zcl_SendConfigReportRspCmd?relay,0203H
        PUBLIC ??zcl_SendDefaultRspCmd?relay
        FUNCTION ??zcl_SendDefaultRspCmd?relay,0203H
        PUBLIC ??zcl_SendRead?relay
        FUNCTION ??zcl_SendRead?relay,0203H
        PUBLIC ??zcl_SendReadReportCfgCmd?relay
        FUNCTION ??zcl_SendReadReportCfgCmd?relay,0203H
        PUBLIC ??zcl_SendReadReportCfgRspCmd?relay
        FUNCTION ??zcl_SendReadReportCfgRspCmd?relay,0203H
        PUBLIC ??zcl_SendReadRsp?relay
        FUNCTION ??zcl_SendReadRsp?relay,0203H
        PUBLIC ??zcl_SendReportCmd?relay
        FUNCTION ??zcl_SendReportCmd?relay,0203H
        PUBLIC ??zcl_SendWriteRequest?relay
        FUNCTION ??zcl_SendWriteRequest?relay,0203H
        PUBLIC ??zcl_SendWriteRsp?relay
        FUNCTION ??zcl_SendWriteRsp?relay,0203H
        PUBLIC ??zcl_event_loop?relay
        FUNCTION ??zcl_event_loop?relay,0203H
        PUBLIC ??zcl_getParsedTransSeqNum?relay
        FUNCTION ??zcl_getParsedTransSeqNum?relay,0203H
        PUBLIC ??zcl_getRawAFMsg?relay
        FUNCTION ??zcl_getRawAFMsg?relay,0203H
        PUBLIC ??zcl_registerAttrList?relay
        FUNCTION ??zcl_registerAttrList?relay,0203H
        PUBLIC ??zcl_registerClusterOptionList?relay
        FUNCTION ??zcl_registerClusterOptionList?relay,0203H
        PUBLIC ??zcl_registerForMsg?relay
        FUNCTION ??zcl_registerForMsg?relay,0203H
        PUBLIC ??zcl_registerPlugin?relay
        FUNCTION ??zcl_registerPlugin?relay,0203H
        PUBLIC ??zcl_registerReadWriteCB?relay
        FUNCTION ??zcl_registerReadWriteCB?relay,0203H
        PUBLIC ??zcl_registerValidateAttrData?relay
        FUNCTION ??zcl_registerValidateAttrData?relay,0203H
        PUBLIC zclAnalogDataType
        FUNCTION zclAnalogDataType,080203H
        ARGFRAME XSTACK, 24, STACK
        ARGFRAME IOVERLAY, 0, STATIC
        ARGFRAME DOVERLAY, 0, STATIC
        LOCFRAME ISTACK, 2, STACK
        FUNCTION zclAuthorizeWrite,0a1203H
        ARGFRAME XSTACK, 15, STACK
        ARGFRAME IOVERLAY, 0, STATIC
        ARGFRAME DOVERLAY, 0, STATIC
        LOCFRAME XSTACK, 14, STACK
        FUNCTION zclBuildHdr,0203H
        ARGFRAME XSTACK, 33, STACK
        ARGFRAME IOVERLAY, 0, STATIC
        ARGFRAME DOVERLAY, 0, STATIC
        LOCFRAME ISTACK, 1, STACK
        LOCFRAME XSTACK, 9, STACK
        PUBLIC zclFindAttrRec
        FUNCTION zclFindAttrRec,0a1203H
        ARGFRAME XSTACK, 40, STACK
        ARGFRAME IOVERLAY, 0, STATIC
        ARGFRAME DOVERLAY, 0, STATIC
        LOCFRAME ISTACK, 2, STACK
        LOCFRAME XSTACK, 14, STACK
        FUNCTION zclFindAttrRecsList,0203H
        ARGFRAME XSTACK, 14, STACK
        ARGFRAME IOVERLAY, 0, STATIC
        ARGFRAME DOVERLAY, 0, STATIC
        LOCFRAME ISTACK, 2, STACK
        FUNCTION zclFindClusterOption,080203H
        ARGFRAME XSTACK, 10, STACK
        ARGFRAME IOVERLAY, 0, STATIC
        ARGFRAME DOVERLAY, 0, STATIC
        LOCFRAME XSTACK, 9, STACK
        PUBLIC zclGetAttrDataLength
        FUNCTION zclGetAttrDataLength,021203H
        ARGFRAME XSTACK, 38, STACK
        ARGFRAME IOVERLAY, 0, STATIC
        ARGFRAME DOVERLAY, 0, STATIC
        LOCFRAME XSTACK, 9, STACK
        FUNCTION zclGetAttrDataLengthUsingCB,0a1203H
        ARGFRAME XSTACK, 38, STACK
        ARGFRAME IOVERLAY, 0, STATIC
        ARGFRAME DOVERLAY, 0, STATIC
        LOCFRAME XSTACK, 22, STACK
        FUNCTION zclGetAuthorizeCB,0a1203H
        ARGFRAME XSTACK, 32, STACK
        ARGFRAME IOVERLAY, 0, STATIC
        ARGFRAME DOVERLAY, 0, STATIC
        LOCFRAME XSTACK, 10, STACK
        FUNCTION zclGetClusterOption,0a1203H
        ARGFRAME XSTACK, 37, STACK
        ARGFRAME IOVERLAY, 0, STATIC
        ARGFRAME DOVERLAY, 0, STATIC
        LOCFRAME XSTACK, 10, STACK
        PUBLIC zclGetDataTypeLength
        FUNCTION zclGetDataTypeLength,0203H
        ARGFRAME XSTACK, 24, STACK
        ARGFRAME IOVERLAY, 0, STATIC
        ARGFRAME DOVERLAY, 0, STATIC
        FUNCTION zclGetReadWriteCB,0a1203H
        ARGFRAME XSTACK, 18, STACK
        ARGFRAME IOVERLAY, 0, STATIC
        ARGFRAME DOVERLAY, 0, STATIC
        LOCFRAME XSTACK, 10, STACK
        PUBLIC zclParseHdr
        FUNCTION zclParseHdr,0a1203H
        ARGFRAME XSTACK, 37, STACK
        ARGFRAME IOVERLAY, 0, STATIC
        ARGFRAME DOVERLAY, 0, STATIC
        LOCFRAME ISTACK, 1, STACK
        LOCFRAME XSTACK, 12, STACK
        PUBLIC zclParseInConfigReportCmd
        FUNCTION zclParseInConfigReportCmd,0a1603H
        ARGFRAME XSTACK, 0, STACK
        LOCFRAME ISTACK, 1, STACK
        LOCFRAME XSTACK, 20, STACK
        FUNCTION zclParseInConfigReportRspCmd,0a1603H
        ARGFRAME XSTACK, 0, STACK
        LOCFRAME ISTACK, 1, STACK
        LOCFRAME XSTACK, 11, STACK
        FUNCTION zclParseInDefaultRspCmd,0a1603H
        ARGFRAME XSTACK, 0, STACK
        LOCFRAME ISTACK, 1, STACK
        LOCFRAME XSTACK, 10, STACK
        PUBLIC zclParseInReadCmd
        FUNCTION zclParseInReadCmd,0a1603H
        ARGFRAME XSTACK, 0, STACK
        LOCFRAME ISTACK, 1, STACK
        LOCFRAME XSTACK, 12, STACK
        PUBLIC zclParseInReadReportCfgCmd
        FUNCTION zclParseInReadReportCfgCmd,0a1603H
        ARGFRAME XSTACK, 0, STACK
        LOCFRAME ISTACK, 1, STACK
        LOCFRAME XSTACK, 12, STACK
        FUNCTION zclParseInReadReportCfgRspCmd,0a1603H
        ARGFRAME XSTACK, 0, STACK
        LOCFRAME ISTACK, 1, STACK
        LOCFRAME XSTACK, 20, STACK
        FUNCTION zclParseInReadRspCmd,0a1603H
        ARGFRAME XSTACK, 0, STACK
        LOCFRAME ISTACK, 1, STACK
        LOCFRAME XSTACK, 25, STACK
        PUBLIC zclParseInReportCmd
        FUNCTION zclParseInReportCmd,0a1603H
        ARGFRAME XSTACK, 0, STACK
        LOCFRAME ISTACK, 1, STACK
        LOCFRAME XSTACK, 25, STACK
        PUBLIC zclParseInWriteCmd
        FUNCTION zclParseInWriteCmd,0a1603H
        ARGFRAME XSTACK, 0, STACK
        LOCFRAME ISTACK, 1, STACK
        LOCFRAME XSTACK, 25, STACK
        FUNCTION zclParseInWriteRspCmd,0a1603H
        ARGFRAME XSTACK, 0, STACK
        LOCFRAME ISTACK, 1, STACK
        LOCFRAME XSTACK, 16, STACK
        FUNCTION zclProcessInReadCmd,0a1603H
        ARGFRAME XSTACK, 0, STACK
        LOCFRAME ISTACK, 1, STACK
        LOCFRAME XSTACK, 37, STACK
        FUNCTION zclProcessInWriteCmd,0a1603H
        ARGFRAME XSTACK, 0, STACK
        LOCFRAME ISTACK, 1, STACK
        LOCFRAME XSTACK, 41, STACK
        FUNCTION zclProcessInWriteUndividedCmd,0a1603H
        ARGFRAME XSTACK, 0, STACK
        LOCFRAME ISTACK, 1, STACK
        LOCFRAME XSTACK, 43, STACK
        PUBLIC zclReadAttrData
        FUNCTION zclReadAttrData,0a1203H
        ARGFRAME XSTACK, 40, STACK
        ARGFRAME IOVERLAY, 0, STATIC
        ARGFRAME DOVERLAY, 0, STATIC
        LOCFRAME XSTACK, 18, STACK
        FUNCTION zclReadAttrDataUsingCB,0a1203H
        ARGFRAME XSTACK, 42, STACK
        ARGFRAME IOVERLAY, 0, STATIC
        ARGFRAME DOVERLAY, 0, STATIC
        LOCFRAME XSTACK, 20, STACK
        FUNCTION zclRevertWriteUndividedCmd,0a1203H
        ARGFRAME XSTACK, 40, STACK
        ARGFRAME IOVERLAY, 0, STATIC
        ARGFRAME DOVERLAY, 0, STATIC
        LOCFRAME XSTACK, 33, STACK
        PUBLIC zclSerializeData
        FUNCTION zclSerializeData,0a1203H
        ARGFRAME XSTACK, 24, STACK
        ARGFRAME IOVERLAY, 0, STATIC
        ARGFRAME DOVERLAY, 0, STATIC
        LOCFRAME ISTACK, 1, STACK
        LOCFRAME XSTACK, 18, STACK
        FUNCTION zclSetSecurityOption,0a1203H
        ARGFRAME XSTACK, 37, STACK
        ARGFRAME IOVERLAY, 0, STATIC
        ARGFRAME DOVERLAY, 0, STATIC
        LOCFRAME XSTACK, 10, STACK
        FUNCTION zclWriteAttrData,0a1203H
        ARGFRAME XSTACK, 40, STACK
        ARGFRAME IOVERLAY, 0, STATIC
        ARGFRAME DOVERLAY, 0, STATIC
        LOCFRAME XSTACK, 18, STACK
        FUNCTION zclWriteAttrDataUsingCB,0a1203H
        ARGFRAME XSTACK, 40, STACK
        ARGFRAME IOVERLAY, 0, STATIC
        ARGFRAME DOVERLAY, 0, STATIC
        LOCFRAME XSTACK, 18, STACK
        FUNCTION zcl_BuildAnalogData,0a1203H
        ARGFRAME XSTACK, 20, STACK
        ARGFRAME IOVERLAY, 0, STATIC
        ARGFRAME DOVERLAY, 0, STATIC
        LOCFRAME ISTACK, 1, STACK
        LOCFRAME XSTACK, 16, STACK
        FUNCTION zcl_DeviceOperational,0a1203H
        ARGFRAME XSTACK, 39, STACK
        ARGFRAME IOVERLAY, 0, STATIC
        ARGFRAME DOVERLAY, 0, STATIC
        LOCFRAME XSTACK, 25, STACK
        PUBLIC zcl_HandleExternal
        FUNCTION zcl_HandleExternal,0a1603H
        ARGFRAME XSTACK, 0, STACK
        LOCFRAME ISTACK, 1, STACK
        LOCFRAME XSTACK, 10, STACK
        PUBLIC zcl_Init
        FUNCTION zcl_Init,0203H
        ARGFRAME XSTACK, 0, STACK
        LOCFRAME ISTACK, 2, STACK
        PUBLIC zcl_ProcessMessageMSG
        FUNCTION zcl_ProcessMessageMSG,0a1203H
        ARGFRAME XSTACK, 12, STACK
        ARGFRAME IOVERLAY, 0, STATIC
        ARGFRAME DOVERLAY, 0, STATIC
        LOCFRAME ISTACK, 1, STACK
        LOCFRAME XSTACK, 44, STACK
        PUBLIC zcl_ReadAttrData
        FUNCTION zcl_ReadAttrData,0a1203H
        ARGFRAME XSTACK, 4, STACK
        LOCFRAME XSTACK, 30, STACK
        PUBLIC zcl_RegisteredMsgTaskID
        PUBLIC zcl_SendCommand
        FUNCTION zcl_SendCommand,0a1203H
        ARGFRAME XSTACK, 35, STACK
        ARGFRAME IOVERLAY, 0, STATIC
        ARGFRAME DOVERLAY, 0, STATIC
        LOCFRAME ISTACK, 1, STACK
        LOCFRAME XSTACK, 39, STACK
        PUBLIC zcl_SendConfigReportCmd
        FUNCTION zcl_SendConfigReportCmd,0a1203H
        ARGFRAME XSTACK, 5, STACK
        LOCFRAME ISTACK, 1, STACK
        LOCFRAME XSTACK, 35, STACK
        PUBLIC zcl_SendConfigReportRspCmd
        FUNCTION zcl_SendConfigReportRspCmd,0a1203H
        ARGFRAME XSTACK, 5, STACK
        LOCFRAME ISTACK, 1, STACK
        LOCFRAME XSTACK, 31, STACK
        PUBLIC zcl_SendDefaultRspCmd
        FUNCTION zcl_SendDefaultRspCmd,0a1203H
        ARGFRAME XSTACK, 44, STACK
        ARGFRAME IOVERLAY, 0, STATIC
        ARGFRAME DOVERLAY, 0, STATIC
        LOCFRAME ISTACK, 1, STACK
        LOCFRAME XSTACK, 23, STACK
        PUBLIC zcl_SendRead
        FUNCTION zcl_SendRead,0a1203H
        ARGFRAME XSTACK, 5, STACK
        LOCFRAME ISTACK, 1, STACK
        LOCFRAME XSTACK, 31, STACK
        PUBLIC zcl_SendReadReportCfgCmd
        FUNCTION zcl_SendReadReportCfgCmd,0a1203H
        ARGFRAME XSTACK, 5, STACK
        LOCFRAME ISTACK, 1, STACK
        LOCFRAME XSTACK, 31, STACK
        PUBLIC zcl_SendReadReportCfgRspCmd
        FUNCTION zcl_SendReadReportCfgRspCmd,0a1203H
        ARGFRAME XSTACK, 5, STACK
        LOCFRAME ISTACK, 1, STACK
        LOCFRAME XSTACK, 35, STACK
        PUBLIC zcl_SendReadRsp
        FUNCTION zcl_SendReadRsp,0a1203H
        ARGFRAME XSTACK, 37, STACK
        ARGFRAME IOVERLAY, 0, STATIC
        ARGFRAME DOVERLAY, 0, STATIC
        LOCFRAME ISTACK, 1, STACK
        LOCFRAME XSTACK, 35, STACK
        PUBLIC zcl_SendReportCmd
        FUNCTION zcl_SendReportCmd,0a1203H
        ARGFRAME XSTACK, 5, STACK
        LOCFRAME ISTACK, 1, STACK
        LOCFRAME XSTACK, 31, STACK
        PUBLIC zcl_SendWriteRequest
        FUNCTION zcl_SendWriteRequest,0a1203H
        ARGFRAME XSTACK, 6, STACK
        LOCFRAME ISTACK, 1, STACK
        LOCFRAME XSTACK, 31, STACK
        PUBLIC zcl_SendWriteRsp
        FUNCTION zcl_SendWriteRsp,0a1203H
        ARGFRAME XSTACK, 43, STACK
        ARGFRAME IOVERLAY, 0, STATIC
        ARGFRAME DOVERLAY, 0, STATIC
        LOCFRAME ISTACK, 1, STACK
        LOCFRAME XSTACK, 31, STACK
        PUBLIC zcl_SeqNum
        PUBLIC zcl_TaskID
        PUBLIC zcl_TransID
        PUBLIC zcl_ValidateAttrDataCB
        PUBLIC zcl_event_loop
        FUNCTION zcl_event_loop,0a1203H
        ARGFRAME XSTACK, 0, STACK
        LOCFRAME XSTACK, 12, STACK
        PUBLIC zcl_getParsedTransSeqNum
        FUNCTION zcl_getParsedTransSeqNum,0203H
        ARGFRAME XSTACK, 0, STACK
        LOCFRAME ISTACK, 2, STACK
        PUBLIC zcl_getRawAFMsg
        FUNCTION zcl_getRawAFMsg,0203H
        ARGFRAME XSTACK, 0, STACK
        LOCFRAME ISTACK, 2, STACK
        PUBLIC zcl_registerAttrList
        FUNCTION zcl_registerAttrList,0a1203H
        ARGFRAME XSTACK, 0, STACK
        LOCFRAME ISTACK, 1, STACK
        LOCFRAME XSTACK, 12, STACK
        PUBLIC zcl_registerClusterOptionList
        FUNCTION zcl_registerClusterOptionList,0a1203H
        ARGFRAME XSTACK, 0, STACK
        LOCFRAME ISTACK, 1, STACK
        LOCFRAME XSTACK, 12, STACK
        PUBLIC zcl_registerForMsg
        FUNCTION zcl_registerForMsg,0203H
        ARGFRAME XSTACK, 0, STACK
        LOCFRAME ISTACK, 2, STACK
        PUBLIC zcl_registerPlugin
        FUNCTION zcl_registerPlugin,0a1203H
        ARGFRAME XSTACK, 2, STACK
        LOCFRAME XSTACK, 12, STACK
        PUBLIC zcl_registerReadWriteCB
        FUNCTION zcl_registerReadWriteCB,0a1203H
        ARGFRAME XSTACK, 0, STACK
        LOCFRAME XSTACK, 14, STACK
        PUBLIC zcl_registerValidateAttrData
        FUNCTION zcl_registerValidateAttrData,0203H
        ARGFRAME XSTACK, 0, STACK
        LOCFRAME ISTACK, 2, STACK
        
          CFI Names cfiNames0
          CFI StackFrame CFA_SP SP IDATA
          CFI StackFrame CFA_PSP16 PSP16 XDATA
          CFI StackFrame CFA_XSP16 XSP16 XDATA
          CFI StaticOverlayFrame CFA_IOVERLAY IOVERLAY
          CFI StaticOverlayFrame CFA_DOVERLAY DOVERLAY
          CFI Resource `PSW.CY`:1, `B.BR0`:1, `B.BR1`:1, `B.BR2`:1, `B.BR3`:1
          CFI Resource `B.BR4`:1, `B.BR5`:1, `B.BR6`:1, `B.BR7`:1, `VB.BR8`:1
          CFI Resource `VB.BR9`:1, `VB.BR10`:1, `VB.BR11`:1, `VB.BR12`:1
          CFI Resource `VB.BR13`:1, `VB.BR14`:1, `VB.BR15`:1, VB:8, B:8, A:8
          CFI Resource PSW:8, DPL0:8, DPH0:8, R0:8, R1:8, R2:8, R3:8, R4:8, R5:8
          CFI Resource R6:8, R7:8, V0:8, V1:8, V2:8, V3:8, V4:8, V5:8, V6:8, V7:8
          CFI Resource V8:8, V9:8, V10:8, V11:8, V12:8, V13:8, V14:8, V15:8, SP:8
          CFI Resource PSPH:8, PSPL:8, PSP16:16, XSPH:8, XSPL:8, XSP16:16
          CFI VirtualResource ?RET:24
          CFI Resource ?BRET_EXT:8
          CFI VirtualResource ?RET_HIGH:8, ?RET_LOW:8
          CFI ResourceParts PSP16 PSPH, PSPL
          CFI ResourceParts XSP16 XSPH, XSPL
          CFI ResourceParts ?RET ?BRET_EXT, ?RET_HIGH, ?RET_LOW
          CFI EndNames cfiNames0
        
          CFI Common cfiCommon0 Using cfiNames0
          CFI CodeAlign 1
          CFI DataAlign -1
          CFI ReturnAddress ?RET CODE
          CFI CFA_DOVERLAY Used
          CFI CFA_IOVERLAY Used
          CFI CFA_SP SP+-3
          CFI CFA_PSP16 PSP16+0
          CFI CFA_XSP16 XSP16+0
          CFI `PSW.CY` SameValue
          CFI `B.BR0` SameValue
          CFI `B.BR1` SameValue
          CFI `B.BR2` SameValue
          CFI `B.BR3` SameValue
          CFI `B.BR4` SameValue
          CFI `B.BR5` SameValue
          CFI `B.BR6` SameValue
          CFI `B.BR7` SameValue
          CFI `VB.BR8` SameValue
          CFI `VB.BR9` SameValue
          CFI `VB.BR10` SameValue
          CFI `VB.BR11` SameValue
          CFI `VB.BR12` SameValue
          CFI `VB.BR13` SameValue
          CFI `VB.BR14` SameValue
          CFI `VB.BR15` SameValue
          CFI VB SameValue
          CFI B Undefined
          CFI A Undefined
          CFI PSW SameValue
          CFI DPL0 SameValue
          CFI DPH0 SameValue
          CFI R0 Undefined
          CFI R1 Undefined
          CFI R2 Undefined
          CFI R3 Undefined
          CFI R4 Undefined
          CFI R5 Undefined
          CFI R6 SameValue
          CFI R7 SameValue
          CFI V0 SameValue
          CFI V1 SameValue
          CFI V2 SameValue
          CFI V3 SameValue
          CFI V4 SameValue
          CFI V5 SameValue
          CFI V6 SameValue
          CFI V7 SameValue
          CFI V8 SameValue
          CFI V9 SameValue
          CFI V10 SameValue
          CFI V11 SameValue
          CFI V12 SameValue
          CFI V13 SameValue
          CFI V14 SameValue
          CFI V15 SameValue
          CFI PSPH Undefined
          CFI PSPL Undefined
          CFI XSPH Undefined
          CFI XSPL Undefined
          CFI ?RET Concat
          CFI ?BRET_EXT Frame(CFA_SP, 3)
          CFI ?RET_HIGH Frame(CFA_SP, 2)
          CFI ?RET_LOW Frame(CFA_SP, 1)
          CFI EndCommon cfiCommon0
        
        
          CFI Common cfiCommon1 Using cfiNames0
          CFI CodeAlign 1
          CFI DataAlign -1
          CFI ReturnAddress ?RET CODE
          CFI CFA_DOVERLAY Used
          CFI CFA_IOVERLAY Used
          CFI CFA_SP SP+-2
          CFI CFA_PSP16 PSP16+0
          CFI CFA_XSP16 XSP16+0
          CFI `PSW.CY` SameValue
          CFI `B.BR0` SameValue
          CFI `B.BR1` SameValue
          CFI `B.BR2` SameValue
          CFI `B.BR3` SameValue
          CFI `B.BR4` SameValue
          CFI `B.BR5` SameValue
          CFI `B.BR6` SameValue
          CFI `B.BR7` SameValue
          CFI `VB.BR8` SameValue
          CFI `VB.BR9` SameValue
          CFI `VB.BR10` SameValue
          CFI `VB.BR11` SameValue
          CFI `VB.BR12` SameValue
          CFI `VB.BR13` SameValue
          CFI `VB.BR14` SameValue
          CFI `VB.BR15` SameValue
          CFI VB SameValue
          CFI B SameValue
          CFI A SameValue
          CFI PSW SameValue
          CFI DPL0 SameValue
          CFI DPH0 SameValue
          CFI R0 SameValue
          CFI R1 SameValue
          CFI R2 SameValue
          CFI R3 SameValue
          CFI R4 SameValue
          CFI R5 SameValue
          CFI R6 SameValue
          CFI R7 SameValue
          CFI V0 SameValue
          CFI V1 SameValue
          CFI V2 SameValue
          CFI V3 SameValue
          CFI V4 SameValue
          CFI V5 SameValue
          CFI V6 SameValue
          CFI V7 SameValue
          CFI V8 SameValue
          CFI V9 SameValue
          CFI V10 SameValue
          CFI V11 SameValue
          CFI V12 SameValue
          CFI V13 SameValue
          CFI V14 SameValue
          CFI V15 SameValue
          CFI PSPH Undefined
          CFI PSPL Undefined
          CFI XSPH Undefined
          CFI XSPL Undefined
          CFI ?RET Concat
          CFI ?BRET_EXT SameValue
          CFI ?RET_HIGH Frame(CFA_SP, 2)
          CFI ?RET_LOW Frame(CFA_SP, 1)
          CFI EndCommon cfiCommon1
        
AF_DataRequest      SYMBOL "AF_DataRequest"
??AF_DataRequest?relay SYMBOL "?relay", AF_DataRequest
afFindEndPointDesc  SYMBOL "afFindEndPointDesc"
??afFindEndPointDesc?relay SYMBOL "?relay", afFindEndPointDesc
osal_buffer_uint32  SYMBOL "osal_buffer_uint32"
??osal_buffer_uint32?relay SYMBOL "?relay", osal_buffer_uint32
osal_mem_alloc      SYMBOL "osal_mem_alloc"
??osal_mem_alloc?relay SYMBOL "?relay", osal_mem_alloc
osal_mem_free       SYMBOL "osal_mem_free"
??osal_mem_free?relay SYMBOL "?relay", osal_mem_free
osal_memcpy         SYMBOL "osal_memcpy"
??osal_memcpy?relay SYMBOL "?relay", osal_memcpy
osal_memset         SYMBOL "osal_memset"
??osal_memset?relay SYMBOL "?relay", osal_memset
osal_msg_allocate   SYMBOL "osal_msg_allocate"
??osal_msg_allocate?relay SYMBOL "?relay", osal_msg_allocate
osal_msg_deallocate SYMBOL "osal_msg_deallocate"
??osal_msg_deallocate?relay SYMBOL "?relay", osal_msg_deallocate
osal_msg_receive    SYMBOL "osal_msg_receive"
??osal_msg_receive?relay SYMBOL "?relay", osal_msg_receive
osal_msg_send       SYMBOL "osal_msg_send"
??osal_msg_send?relay SYMBOL "?relay", osal_msg_send
zclAnalogDataType   SYMBOL "zclAnalogDataType"
??zclAnalogDataType?relay SYMBOL "?relay", zclAnalogDataType
zclFindAttrRec      SYMBOL "zclFindAttrRec"
??zclFindAttrRec?relay SYMBOL "?relay", zclFindAttrRec
zclGetAttrDataLength SYMBOL "zclGetAttrDataLength"
??zclGetAttrDataLength?relay SYMBOL "?relay", zclGetAttrDataLength
zclGetDataTypeLength SYMBOL "zclGetDataTypeLength"
??zclGetDataTypeLength?relay SYMBOL "?relay", zclGetDataTypeLength
zclParseHdr         SYMBOL "zclParseHdr"
??zclParseHdr?relay SYMBOL "?relay", zclParseHdr
zclParseInConfigReportCmd SYMBOL "zclParseInConfigReportCmd"
??zclParseInConfigReportCmd?relay SYMBOL "?relay", zclParseInConfigReportCmd
zclParseInReadCmd   SYMBOL "zclParseInReadCmd"
??zclParseInReadCmd?relay SYMBOL "?relay", zclParseInReadCmd
zclParseInReadReportCfgCmd SYMBOL "zclParseInReadReportCfgCmd"
??zclParseInReadReportCfgCmd?relay SYMBOL "?relay", zclParseInReadReportCfgCmd
zclParseInReportCmd SYMBOL "zclParseInReportCmd"
??zclParseInReportCmd?relay SYMBOL "?relay", zclParseInReportCmd
zclParseInWriteCmd  SYMBOL "zclParseInWriteCmd"
??zclParseInWriteCmd?relay SYMBOL "?relay", zclParseInWriteCmd
zclReadAttrData     SYMBOL "zclReadAttrData"
??zclReadAttrData?relay SYMBOL "?relay", zclReadAttrData
zclSerializeData    SYMBOL "zclSerializeData"
??zclSerializeData?relay SYMBOL "?relay", zclSerializeData
zcl_HandleExternal  SYMBOL "zcl_HandleExternal"
??zcl_HandleExternal?relay SYMBOL "?relay", zcl_HandleExternal
zcl_Init            SYMBOL "zcl_Init"
??zcl_Init?relay    SYMBOL "?relay", zcl_Init
zcl_ProcessMessageMSG SYMBOL "zcl_ProcessMessageMSG"
??zcl_ProcessMessageMSG?relay SYMBOL "?relay", zcl_ProcessMessageMSG
zcl_ReadAttrData    SYMBOL "zcl_ReadAttrData"
??zcl_ReadAttrData?relay SYMBOL "?relay", zcl_ReadAttrData
zcl_SendCommand     SYMBOL "zcl_SendCommand"
??zcl_SendCommand?relay SYMBOL "?relay", zcl_SendCommand
zcl_SendConfigReportCmd SYMBOL "zcl_SendConfigReportCmd"
??zcl_SendConfigReportCmd?relay SYMBOL "?relay", zcl_SendConfigReportCmd
zcl_SendConfigReportRspCmd SYMBOL "zcl_SendConfigReportRspCmd"
??zcl_SendConfigReportRspCmd?relay SYMBOL "?relay", zcl_SendConfigReportRspCmd
zcl_SendDefaultRspCmd SYMBOL "zcl_SendDefaultRspCmd"
??zcl_SendDefaultRspCmd?relay SYMBOL "?relay", zcl_SendDefaultRspCmd
zcl_SendRead        SYMBOL "zcl_SendRead"
??zcl_SendRead?relay SYMBOL "?relay", zcl_SendRead
zcl_SendReadReportCfgCmd SYMBOL "zcl_SendReadReportCfgCmd"
??zcl_SendReadReportCfgCmd?relay SYMBOL "?relay", zcl_SendReadReportCfgCmd
zcl_SendReadReportCfgRspCmd SYMBOL "zcl_SendReadReportCfgRspCmd"
??zcl_SendReadReportCfgRspCmd?relay SYMBOL "?relay", zcl_SendReadReportCfgRspCmd
zcl_SendReadRsp     SYMBOL "zcl_SendReadRsp"
??zcl_SendReadRsp?relay SYMBOL "?relay", zcl_SendReadRsp
zcl_SendReportCmd   SYMBOL "zcl_SendReportCmd"
??zcl_SendReportCmd?relay SYMBOL "?relay", zcl_SendReportCmd
zcl_SendWriteRequest SYMBOL "zcl_SendWriteRequest"
??zcl_SendWriteRequest?relay SYMBOL "?relay", zcl_SendWriteRequest
zcl_SendWriteRsp    SYMBOL "zcl_SendWriteRsp"
??zcl_SendWriteRsp?relay SYMBOL "?relay", zcl_SendWriteRsp
zcl_event_loop      SYMBOL "zcl_event_loop"
??zcl_event_loop?relay SYMBOL "?relay", zcl_event_loop
zcl_getParsedTransSeqNum SYMBOL "zcl_getParsedTransSeqNum"
??zcl_getParsedTransSeqNum?relay SYMBOL "?relay", zcl_getParsedTransSeqNum
zcl_getRawAFMsg     SYMBOL "zcl_getRawAFMsg"
??zcl_getRawAFMsg?relay SYMBOL "?relay", zcl_getRawAFMsg
zcl_registerAttrList SYMBOL "zcl_registerAttrList"
??zcl_registerAttrList?relay SYMBOL "?relay", zcl_registerAttrList
zcl_registerClusterOptionList SYMBOL "zcl_registerClusterOptionList"
??zcl_registerClusterOptionList?relay SYMBOL "?relay", zcl_registerClusterOptionList
zcl_registerForMsg  SYMBOL "zcl_registerForMsg"
??zcl_registerForMsg?relay SYMBOL "?relay", zcl_registerForMsg
zcl_registerPlugin  SYMBOL "zcl_registerPlugin"
??zcl_registerPlugin?relay SYMBOL "?relay", zcl_registerPlugin
zcl_registerReadWriteCB SYMBOL "zcl_registerReadWriteCB"
??zcl_registerReadWriteCB?relay SYMBOL "?relay", zcl_registerReadWriteCB
zcl_registerValidateAttrData SYMBOL "zcl_registerValidateAttrData"
??zcl_registerValidateAttrData?relay SYMBOL "?relay", zcl_registerValidateAttrData

        EXTERN ??AF_DataRequest?relay
        FUNCTION ??AF_DataRequest?relay,00H
        EXTERN ??afFindEndPointDesc?relay
        FUNCTION ??afFindEndPointDesc?relay,00H
        EXTERN ??osal_buffer_uint32?relay
        FUNCTION ??osal_buffer_uint32?relay,00H
        EXTERN ??osal_mem_alloc?relay
        FUNCTION ??osal_mem_alloc?relay,00H
        EXTERN ??osal_mem_free?relay
        FUNCTION ??osal_mem_free?relay,00H
        EXTERN ??osal_memcpy?relay
        FUNCTION ??osal_memcpy?relay,00H
        EXTERN ??osal_memset?relay
        FUNCTION ??osal_memset?relay,00H
        EXTERN ??osal_msg_allocate?relay
        FUNCTION ??osal_msg_allocate?relay,00H
        EXTERN ??osal_msg_deallocate?relay
        FUNCTION ??osal_msg_deallocate?relay,00H
        EXTERN ??osal_msg_receive?relay
        FUNCTION ??osal_msg_receive?relay,00H
        EXTERN ??osal_msg_send?relay
        FUNCTION ??osal_msg_send?relay,00H
        EXTERN AF_DataRequest
        FUNCTION AF_DataRequest,0202H
        ARGFRAME ISTACK, 0, STACK
        ARGFRAME PSTACK, 0, STACK
        ARGFRAME XSTACK, 39, STACK
        ARGFRAME IOVERLAY, 0, STATIC
        ARGFRAME DOVERLAY, 0, STATIC
        EXTERN afFindEndPointDesc
        FUNCTION afFindEndPointDesc,0202H
        ARGFRAME ISTACK, 0, STACK
        ARGFRAME PSTACK, 0, STACK
        ARGFRAME XSTACK, 37, STACK
        ARGFRAME IOVERLAY, 0, STATIC
        ARGFRAME DOVERLAY, 0, STATIC
        EXTERN osal_buffer_uint32
        FUNCTION osal_buffer_uint32,0202H
        ARGFRAME ISTACK, 0, STACK
        ARGFRAME PSTACK, 0, STACK
        ARGFRAME XSTACK, 18, STACK
        ARGFRAME IOVERLAY, 0, STATIC
        ARGFRAME DOVERLAY, 0, STATIC
        EXTERN osal_mem_alloc
        FUNCTION osal_mem_alloc,0202H
        ARGFRAME ISTACK, 0, STACK
        ARGFRAME PSTACK, 0, STACK
        ARGFRAME XSTACK, 38, STACK
        ARGFRAME IOVERLAY, 0, STATIC
        ARGFRAME DOVERLAY, 0, STATIC
        EXTERN osal_mem_free
        FUNCTION osal_mem_free,0202H
        ARGFRAME ISTACK, 0, STACK
        ARGFRAME PSTACK, 0, STACK
        ARGFRAME XSTACK, 38, STACK
        ARGFRAME IOVERLAY, 0, STATIC
        ARGFRAME DOVERLAY, 0, STATIC
        EXTERN osal_memcpy
        FUNCTION osal_memcpy,0202H
        ARGFRAME ISTACK, 0, STACK
        ARGFRAME PSTACK, 0, STACK
        ARGFRAME XSTACK, 33, STACK
        ARGFRAME IOVERLAY, 0, STATIC
        ARGFRAME DOVERLAY, 0, STATIC
        EXTERN osal_memset
        FUNCTION osal_memset,0202H
        ARGFRAME ISTACK, 0, STACK
        ARGFRAME PSTACK, 0, STACK
        ARGFRAME XSTACK, 30, STACK
        ARGFRAME IOVERLAY, 0, STATIC
        ARGFRAME DOVERLAY, 0, STATIC
        EXTERN osal_msg_allocate
        FUNCTION osal_msg_allocate,0202H
        ARGFRAME ISTACK, 0, STACK
        ARGFRAME PSTACK, 0, STACK
        ARGFRAME XSTACK, 10, STACK
        ARGFRAME IOVERLAY, 0, STATIC
        ARGFRAME DOVERLAY, 0, STATIC
        EXTERN osal_msg_deallocate
        FUNCTION osal_msg_deallocate,0202H
        ARGFRAME ISTACK, 0, STACK
        ARGFRAME PSTACK, 0, STACK
        ARGFRAME XSTACK, 12, STACK
        ARGFRAME IOVERLAY, 0, STATIC
        ARGFRAME DOVERLAY, 0, STATIC
        EXTERN osal_msg_receive
        FUNCTION osal_msg_receive,0202H
        ARGFRAME ISTACK, 0, STACK
        ARGFRAME PSTACK, 0, STACK
        ARGFRAME XSTACK, 12, STACK
        ARGFRAME IOVERLAY, 0, STATIC
        ARGFRAME DOVERLAY, 0, STATIC
        EXTERN osal_msg_send
        FUNCTION osal_msg_send,0202H
        ARGFRAME ISTACK, 0, STACK
        ARGFRAME PSTACK, 0, STACK
        ARGFRAME XSTACK, 12, STACK
        ARGFRAME IOVERLAY, 0, STATIC
        ARGFRAME DOVERLAY, 0, STATIC

// C:\Users\paolo\Documents\GitHub\zpowermeter\firmware\Components\stack\zcl\zcl.c
//    1 /**************************************************************************************************
//    2   Filename:       zcl.c
//    3   Revised:        $Date: 2014-06-25 18:07:01 -0700 (Wed, 25 Jun 2014) $
//    4   Revision:       $Revision: 39221 $
//    5 
//    6   Description:    This file contains the Zigbee Cluster Library Foundation functions.
//    7 
//    8 
//    9   Copyright 2006-2014 Texas Instruments Incorporated. All rights reserved.
//   10 
//   11   IMPORTANT: Your use of this Software is limited to those specific rights
//   12   granted under the terms of a software license agreement between the user
//   13   who downloaded the software, his/her employer (which must be your employer)
//   14   and Texas Instruments Incorporated (the "License"). You may not use this
//   15   Software unless you agree to abide by the terms of the License. The License
//   16   limits your use, and you acknowledge, that the Software may not be modified,
//   17   copied or distributed unless embedded on a Texas Instruments microcontroller
//   18   or used solely and exclusively in conjunction with a Texas Instruments radio
//   19   frequency transceiver, which is integrated into your product. Other than for
//   20   the foregoing purpose, you may not use, reproduce, copy, prepare derivative
//   21   works of, modify, distribute, perform, display or sell this Software and/or
//   22   its documentation for any purpose.
//   23 
//   24   YOU FURTHER ACKNOWLEDGE AND AGREE THAT THE SOFTWARE AND DOCUMENTATION ARE
//   25   PROVIDED "AS IS" WITHOUT WARRANTY OF ANY KIND, EITHER EXPRESS OR IMPLIED,
//   26   INCLUDING WITHOUT LIMITATION, ANY WARRANTY OF MERCHANTABILITY, TITLE,
//   27   NON-INFRINGEMENT AND FITNESS FOR A PARTICULAR PURPOSE. IN NO EVENT SHALL
//   28   TEXAS INSTRUMENTS OR ITS LICENSORS BE LIABLE OR OBLIGATED UNDER CONTRACT,
//   29   NEGLIGENCE, STRICT LIABILITY, CONTRIBUTION, BREACH OF WARRANTY, OR OTHER
//   30   LEGAL EQUITABLE THEORY ANY DIRECT OR INDIRECT DAMAGES OR EXPENSES
//   31   INCLUDING BUT NOT LIMITED TO ANY INCIDENTAL, SPECIAL, INDIRECT, PUNITIVE
//   32   OR CONSEQUENTIAL DAMAGES, LOST PROFITS OR LOST DATA, COST OF PROCUREMENT
//   33   OF SUBSTITUTE GOODS, TECHNOLOGY, SERVICES, OR ANY CLAIMS BY THIRD PARTIES
//   34   (INCLUDING BUT NOT LIMITED TO ANY DEFENSE THEREOF), OR OTHER SIMILAR COSTS.
//   35 
//   36   Should you have any questions regarding your right to use this Software,
//   37   contact Texas Instruments Incorporated at www.TI.com.
//   38 **************************************************************************************************/
//   39 
//   40 /*********************************************************************
//   41  * INCLUDES
//   42  */
//   43 #include "ZComDef.h"
//   44 #include "AF.h"
//   45 
//   46 #include "zcl.h"
//   47 #include "zcl_general.h"
//   48 
//   49 #if defined ( INTER_PAN )
//   50   #include "stub_aps.h"
//   51 #endif
//   52 
//   53 /*********************************************************************
//   54  * MACROS
//   55  */
//   56 /*** Frame Control ***/
//   57 #define zcl_FCType( a )               ( (a) & ZCL_FRAME_CONTROL_TYPE )
//   58 #define zcl_FCManuSpecific( a )       ( (a) & ZCL_FRAME_CONTROL_MANU_SPECIFIC )
//   59 #define zcl_FCDirection( a )          ( (a) & ZCL_FRAME_CONTROL_DIRECTION )
//   60 #define zcl_FCDisableDefaultRsp( a )  ( (a) & ZCL_FRAME_CONTROL_DISABLE_DEFAULT_RSP )
//   61 
//   62 /*** Attribute Access Control ***/
//   63 #define zcl_AccessCtrlRead( a )       ( (a) & ACCESS_CONTROL_READ )
//   64 #define zcl_AccessCtrlWrite( a )      ( (a) & ACCESS_CONTROL_WRITE )
//   65 #define zcl_AccessCtrlCmd( a )        ( (a) & ACCESS_CONTROL_CMD )
//   66 #define zcl_AccessCtrlAuthRead( a )   ( (a) & ACCESS_CONTROL_AUTH_READ )
//   67 #define zcl_AccessCtrlAuthWrite( a )  ( (a) & ACCESS_CONTROL_AUTH_WRITE )
//   68 
//   69 #define zclParseCmd( a, b )           zclCmdTable[(a)].pfnParseInProfile( (b) )
//   70 #define zclProcessCmd( a, b )         zclCmdTable[(a)].pfnProcessInProfile( (b) )
//   71 
//   72 #define zcl_DefaultRspCmd( zclHdr )   ( zcl_ProfileCmd( (zclHdr).fc.type )     && \ 
//   73                                         (zclHdr).fc.manuSpecific == 0          && \ 
//   74                                         (zclHdr).commandID == ZCL_CMD_DEFAULT_RSP )
//   75 
//   76 // Commands that have corresponding responses
//   77 #define CMD_HAS_RSP( cmd )            ( (cmd) == ZCL_CMD_READ                   || \ 
//   78                                         (cmd) == ZCL_CMD_WRITE                  || \ 
//   79                                         (cmd) == ZCL_CMD_WRITE_UNDIVIDED        || \ 
//   80                                         (cmd) == ZCL_CMD_CONFIG_REPORT          || \ 
//   81                                         (cmd) == ZCL_CMD_READ_REPORT_CFG        || \ 
//   82                                         (cmd) == ZCL_CMD_DISCOVER_ATTRS         || \ 
//   83                                         (cmd) == ZCL_CMD_DISCOVER_CMDS_RECEIVED || \ 
//   84                                         (cmd) == ZCL_CMD_DISCOVER_CMDS_GEN      || \ 
//   85                                         (cmd) == ZCL_CMD_DISCOVER_ATTRS_EXT     || \ 
//   86                                         (cmd) == ZCL_CMD_DEFAULT_RSP ) // exception
//   87 
//   88 /*********************************************************************
//   89  * CONSTANTS
//   90  */
//   91 
//   92 /*********************************************************************
//   93  * TYPEDEFS
//   94  */
//   95 typedef struct zclLibPlugin
//   96 {
//   97   struct zclLibPlugin *next;
//   98   uint16              startClusterID;    // starting cluster ID
//   99   uint16              endClusterID;      // ending cluster ID
//  100   zclInHdlr_t         pfnIncomingHdlr;    // function to handle incoming message
//  101 } zclLibPlugin_t;
//  102 
//  103 // Command record list
//  104 typedef struct zclCmdRecsList
//  105 {
//  106   struct zclCmdRecsList *pNext;
//  107   uint8                 endpoint;
//  108   uint8                 numCommands;
//  109   CONST zclCommandRec_t *pCmdRecs;
//  110 } zclCmdRecsList_t;
//  111 
//  112 // Attribute record list item
//  113 typedef struct zclAttrRecsList
//  114 {
//  115   struct zclAttrRecsList *next;
//  116   uint8                  endpoint;      // Used to link it into the endpoint descriptor
//  117   zclReadWriteCB_t       pfnReadWriteCB;// Read or Write attribute value callback function
//  118   zclAuthorizeCB_t       pfnAuthorizeCB;// Authorize Read or Write operation
//  119   CONST zclAttrRec_t     *attrs;        // attribute records
//  120 } zclAttrRecsList;
//  121 
//  122 // Cluster option list item
//  123 typedef struct zclClusterOptionList
//  124 {
//  125   struct zclClusterOptionList *next;
//  126   uint8                       endpoint;   // Used to link it into the endpoint descriptor
//  127   uint8                       numOptions; // Number of the following records
//  128   zclOptionRec_t              *options;   // option records
//  129 } zclClusterOptionList;
//  130 
//  131 typedef void *(*zclParseInProfileCmd_t)( zclParseCmd_t *pCmd );
//  132 typedef uint8 (*zclProcessInProfileCmd_t)( zclIncoming_t *pInMsg );
//  133 
//  134 typedef struct
//  135 {
//  136   zclParseInProfileCmd_t   pfnParseInProfile;
//  137   zclProcessInProfileCmd_t pfnProcessInProfile;
//  138 } zclCmdItems_t;
//  139 
//  140 
//  141 /*********************************************************************
//  142  * GLOBAL VARIABLES
//  143  */
//  144 
//  145 #if !defined ( ZCL_STANDALONE )

        RSEG XDATA_Z:XDATA:NOROOT(0)
        DATA8
//  146   uint8 zcl_TaskID;
zcl_TaskID:
        DS 1
        REQUIRE __INIT_XDATA_Z
//  147 
//  148   // The task Id of the Application where the unprocessed Foundation
//  149   // Command/Response messages will be sent to.

        RSEG XDATA_I:XDATA:NOROOT(0)
//  150   uint8 zcl_RegisteredMsgTaskID = TASK_NO_TASK;
zcl_RegisteredMsgTaskID:
        DATA8
        DS 1
        REQUIRE `?<Initializer for zcl_RegisteredMsgTaskID>`
        REQUIRE __INIT_XDATA_I
//  151 #endif
//  152 
//  153 // The Application should register its attribute data validation function

        RSEG XDATA_Z:XDATA:NOROOT(0)
        DATA16
//  154 zclValidateAttrData_t zcl_ValidateAttrDataCB = (zclValidateAttrData_t)NULL;
zcl_ValidateAttrDataCB:
        DS 2
        REQUIRE __INIT_XDATA_Z
//  155 
//  156 // ZCL Sequence number

        RSEG XDATA_Z:XDATA:NOROOT(0)
        DATA8
//  157 uint8 zcl_SeqNum = 0x00;
zcl_SeqNum:
        DS 1
        REQUIRE __INIT_XDATA_Z
//  158 

        RSEG XDATA_Z:XDATA:NOROOT(0)
        DATA8
//  159 uint8 zcl_TransID = 0;  // This is the unique message ID (counter)
zcl_TransID:
        DS 1
        REQUIRE __INIT_XDATA_Z
//  160 

        RSEG XDATA_Z:XDATA:NOROOT(0)
        DATA8
//  161 static uint8 savedZCLTransSeqNum = 0;
savedZCLTransSeqNum:
        DS 1
        REQUIRE __INIT_XDATA_Z
//  162 
//  163 /*********************************************************************
//  164  * EXTERNAL VARIABLES
//  165  */
//  166 
//  167 /*********************************************************************
//  168  * EXTERNAL FUNCTIONS
//  169  */
//  170 
//  171 /*********************************************************************
//  172  * LOCAL VARIABLES
//  173  */

        RSEG XDATA_Z:XDATA:NOROOT(0)
        DATA16
//  174 static zclLibPlugin_t *plugins = (zclLibPlugin_t *)NULL;
plugins:
        DS 2
        REQUIRE __INIT_XDATA_Z
//  175 
//  176 #if defined ( ZCL_DISCOVER )
//  177   static zclCmdRecsList_t *gpCmdList = (zclCmdRecsList_t *)NULL;
//  178 #endif
//  179 

        RSEG XDATA_Z:XDATA:NOROOT(0)
        DATA16
//  180 static zclAttrRecsList *attrList = (zclAttrRecsList *)NULL;
attrList:
        DS 2
        REQUIRE __INIT_XDATA_Z

        RSEG XDATA_Z:XDATA:NOROOT(0)
        DATA16
//  181 static zclClusterOptionList *clusterOptionList = (zclClusterOptionList *)NULL;
clusterOptionList:
        DS 2
        REQUIRE __INIT_XDATA_Z
//  182 

        RSEG XDATA_Z:XDATA:NOROOT(0)
        DATA16
//  183 static afIncomingMSGPacket_t *rawAFMsg = (afIncomingMSGPacket_t *)NULL;
rawAFMsg:
        DS 2
        REQUIRE __INIT_XDATA_Z
//  184 
//  185 /*********************************************************************
//  186  * LOCAL FUNCTIONS
//  187  */
//  188 static uint8 *zclBuildHdr( zclFrameHdr_t *hdr, uint8 *pData );
//  189 static uint8 zclCalcHdrSize( zclFrameHdr_t *hdr );
//  190 static zclLibPlugin_t *zclFindPlugin( uint16 clusterID, uint16 profileID );
//  191 
//  192 #if defined ( ZCL_DISCOVER )
//  193   static zclCmdRecsList_t *zclFindCmdRecsList( uint8 endpoint );
//  194 #endif
//  195 
//  196 static zclAttrRecsList *zclFindAttrRecsList( uint8 endpoint );
//  197 static zclOptionRec_t *zclFindClusterOption( uint8 endpoint, uint16 clusterID );
//  198 static uint8 zclGetClusterOption( uint8 endpoint, uint16 clusterID );
//  199 static void zclSetSecurityOption( uint8 endpoint, uint16 clusterID, uint8 enable );
//  200 
//  201 static uint8 zcl_DeviceOperational( uint8 srcEP, uint16 clusterID, uint8 frameType, uint8 cmd, uint16 profileID );
//  202 
//  203 #if defined ( ZCL_READ ) || defined ( ZCL_WRITE )
//  204 static zclReadWriteCB_t zclGetReadWriteCB( uint8 endpoint );
//  205 static zclAuthorizeCB_t zclGetAuthorizeCB( uint8 endpoint );
//  206 #endif // ZCL_READ || ZCL_WRITE
//  207 
//  208 #ifdef ZCL_READ
//  209 ZStatus_t zclReadAttrData( uint8 *pAttrData, zclAttrRec_t *pAttr, uint16 *pDataLen );
//  210 static uint16 zclGetAttrDataLengthUsingCB( uint8 endpoint, uint16 clusterID, uint16 attrId );
//  211 static ZStatus_t zclReadAttrDataUsingCB( uint8 endpoint, uint16 clusterId, uint16 attrId,
//  212                                          uint8 *pAttrData, uint16 *pDataLen );
//  213 static ZStatus_t zclAuthorizeRead( uint8 endpoint, afAddrType_t *srcAddr, zclAttrRec_t *pAttr );
//  214 static void *zclParseInReadRspCmd( zclParseCmd_t *pCmd );
//  215 static uint8 zclProcessInReadCmd( zclIncoming_t *pInMsg );
//  216 #endif // ZCL_READ
//  217 
//  218 #ifdef ZCL_WRITE
//  219 static ZStatus_t zclWriteAttrData( uint8 endpoint, afAddrType_t *srcAddr,
//  220                                    zclAttrRec_t *pAttr, zclWriteRec_t *pWriteRec );
//  221 static ZStatus_t zclWriteAttrDataUsingCB( uint8 endpoint, afAddrType_t *srcAddr,
//  222                                           zclAttrRec_t *pAttr, uint8 *pAttrData );
//  223 static ZStatus_t zclAuthorizeWrite( uint8 endpoint, afAddrType_t *srcAddr, zclAttrRec_t *pAttr );
//  224 static void *zclParseInWriteRspCmd( zclParseCmd_t *pCmd );
//  225 static uint8 zclProcessInWriteCmd( zclIncoming_t *pInMsg );
//  226 static uint8 zclProcessInWriteUndividedCmd( zclIncoming_t *pInMsg );
//  227 #endif // ZCL_WRITE
//  228 
//  229 #ifdef ZCL_REPORT
//  230 static void *zclParseInConfigReportRspCmd( zclParseCmd_t *pCmd );
//  231 static void *zclParseInReadReportCfgRspCmd( zclParseCmd_t *pCmd );
//  232 #endif // ZCL_REPORT
//  233 
//  234 static void *zclParseInDefaultRspCmd( zclParseCmd_t *pCmd );
//  235 
//  236 #ifdef ZCL_DISCOVER
//  237 static uint8 zclFindNextCmdRec( uint8 endpoint, uint16 clusterID, uint8 commandID, uint8 direction, uint8 *pCmdID, zclCommandRec_t *pCmd );
//  238 static uint8 zclFindNextAttrRec( uint8 endpoint, uint16 clusterID, uint8 direction, uint16 *attrId, zclAttrRec_t *pAttr );
//  239 static void *zclParseInDiscCmdsRspCmd( zclParseCmd_t *pCmd );
//  240 static void *zclParseInDiscAttrsRspCmd( zclParseCmd_t *pCmd );
//  241 static void *zclParseInDiscAttrsExtRspCmd( zclParseCmd_t *pCmd );
//  242 static uint8 zclProcessInDiscCmd( zclIncoming_t *pInMsg );
//  243 static uint8 zclProcessInDiscAttrs( zclIncoming_t *pInMsg );
//  244 static void zclProcessInDiscAttrsCmd( zclIncoming_t *pInMsg, zclDiscoverAttrsCmd_t *pDiscoverCmd, uint8 attrLenBuf );
//  245 static void zclProcessInDiscAttrsExtCmd( zclIncoming_t *pInMsg, zclDiscoverAttrsCmd_t *pDiscoverCmd, uint8 attrLenBuf );
//  246 #endif // ZCL_DISCOVER
//  247 
//  248 /*********************************************************************
//  249  * Parse Profile Command Function Table
//  250  */
//  251 

        RSEG CODE_C:CODE:REORDER:NOROOT(0)
        DATA8
//  252 static CONST zclCmdItems_t zclCmdTable[] =
zclCmdTable:
        DATA16
        DW ??zclParseInReadCmd?relay
        DW ??zclProcessInReadCmd?relay
        DW ??zclParseInReadRspCmd?relay
        DW ??zcl_HandleExternal?relay
        DW ??zclParseInWriteCmd?relay
        DW ??zclProcessInWriteCmd?relay
        DW ??zclParseInWriteCmd?relay
        DW ??zclProcessInWriteUndividedCmd?relay
        DW ??zclParseInWriteRspCmd?relay
        DW ??zcl_HandleExternal?relay
        DW ??zclParseInWriteCmd?relay
        DW ??zclProcessInWriteCmd?relay
        DW ??zclParseInConfigReportCmd?relay
        DW ??zcl_HandleExternal?relay
        DW ??zclParseInConfigReportRspCmd?relay
        DW ??zcl_HandleExternal?relay
        DW ??zclParseInReadReportCfgCmd?relay
        DW ??zcl_HandleExternal?relay
        DW ??zclParseInReadReportCfgRspCmd?relay
        DW ??zcl_HandleExternal?relay
        DW ??zclParseInReportCmd?relay
        DW ??zcl_HandleExternal?relay
        DW ??zclParseInDefaultRspCmd?relay
        DW ??zcl_HandleExternal?relay
        DW 0H
        DW 0H
        DW 0H
        DW 0H
        DW 0H
        DW 0H
        DW 0H
        DW 0H
        DW 0H
        DW 0H
        DW 0H
        DW 0H
        DW 0H
        DW 0H
        DW 0H
        DW 0H
        DW 0H
        DW 0H
        DW 0H
        DW 0H
        DW 0H
        DW 0H
//  253 {
//  254 #ifdef ZCL_READ
//  255   /* ZCL_CMD_READ */                { zclParseInReadCmd,             zclProcessInReadCmd             },
//  256   /* ZCL_CMD_READ_RSP */            { zclParseInReadRspCmd,          zcl_HandleExternal              },
//  257 #else
//  258   /* ZCL_CMD_READ */                { (zclParseInProfileCmd_t)NULL,  (zclProcessInProfileCmd_t)NULL  },
//  259   /* ZCL_CMD_READ_RSP */            { (zclParseInProfileCmd_t)NULL,  (zclProcessInProfileCmd_t)NULL  },
//  260 #endif // ZCL_READ
//  261 
//  262 #ifdef ZCL_WRITE
//  263   /* ZCL_CMD_WRITE */               { zclParseInWriteCmd,            zclProcessInWriteCmd            },
//  264   /* ZCL_CMD_WRITE_UNDIVIDED */     { zclParseInWriteCmd,            zclProcessInWriteUndividedCmd   },
//  265   /* ZCL_CMD_WRITE_RSP */           { zclParseInWriteRspCmd,         zcl_HandleExternal              },
//  266   /* ZCL_CMD_WRITE_NO_RSP */        { zclParseInWriteCmd,            zclProcessInWriteCmd            },
//  267 #else
//  268   /* ZCL_CMD_WRITE */               { (zclParseInProfileCmd_t)NULL,  (zclProcessInProfileCmd_t)NULL  },
//  269   /* ZCL_CMD_WRITE_UNDIVIDED */     { (zclParseInProfileCmd_t)NULL,  (zclProcessInProfileCmd_t)NULL  },
//  270   /* ZCL_CMD_WRITE_RSP */           { (zclParseInProfileCmd_t)NULL,  (zclProcessInProfileCmd_t)NULL  },
//  271   /* ZCL_CMD_WRITE_NO_RSP */        { (zclParseInProfileCmd_t)NULL,  (zclProcessInProfileCmd_t)NULL  },
//  272 #endif // ZCL_WRITE
//  273 
//  274 #ifdef ZCL_REPORT
//  275   /* ZCL_CMD_CONFIG_REPORT */       { zclParseInConfigReportCmd,     zcl_HandleExternal              },
//  276   /* ZCL_CMD_CONFIG_REPORT_RSP */   { zclParseInConfigReportRspCmd,  zcl_HandleExternal              },
//  277   /* ZCL_CMD_READ_REPORT_CFG */     { zclParseInReadReportCfgCmd,    zcl_HandleExternal              },
//  278   /* ZCL_CMD_READ_REPORT_CFG_RSP */ { zclParseInReadReportCfgRspCmd, zcl_HandleExternal              },
//  279   /* ZCL_CMD_REPORT */              { zclParseInReportCmd,           zcl_HandleExternal              },
//  280 #else
//  281   /* ZCL_CMD_CONFIG_REPORT */       { (zclParseInProfileCmd_t)NULL,  (zclProcessInProfileCmd_t)NULL  },
//  282   /* ZCL_CMD_CONFIG_REPORT_RSP */   { (zclParseInProfileCmd_t)NULL,  (zclProcessInProfileCmd_t)NULL  },
//  283   /* ZCL_CMD_READ_REPORT_CFG */     { (zclParseInProfileCmd_t)NULL,  (zclProcessInProfileCmd_t)NULL  },
//  284   /* ZCL_CMD_READ_REPORT_CFG_RSP */ { (zclParseInProfileCmd_t)NULL,  (zclProcessInProfileCmd_t)NULL  },
//  285   /* ZCL_CMD_REPORT */              { (zclParseInProfileCmd_t)NULL,  (zclProcessInProfileCmd_t)NULL  },
//  286 #endif // ZCL_REPORT
//  287 
//  288   /* ZCL_CMD_DEFAULT_RSP */         { zclParseInDefaultRspCmd,       zcl_HandleExternal              },
//  289 
//  290 #ifdef ZCL_DISCOVER
//  291   /* ZCL_CMD_DISCOVER_ATTRS */                { zclParseInDiscAttrsCmd,         zclProcessInDiscAttrs           },
//  292   /* ZCL_CMD_DISCOVER_ATTRS_RSP */            { zclParseInDiscAttrsRspCmd,      zcl_HandleExternal              },
//  293   /* *not supported* READ_ATTRS_STRCT */      { NULL,                           (zclProcessInProfileCmd_t)NULL  },
//  294   /* *not supported* WRITE_ATTRS_STRCT */     { NULL,                           (zclProcessInProfileCmd_t)NULL  },
//  295   /* *not supported* WRITE_ATTRS_STRCT_RSP */ { NULL,                           (zclProcessInProfileCmd_t)NULL  },
//  296   /* ZCL_CMD_DISCOVER_CMDS_RECEIVED */        { zclParseInDiscCmdsCmd,          zclProcessInDiscCmd             },
//  297   /* ZCL_CMD_DISCOVER_CMDS_RECEIVED_RSP */    { zclParseInDiscCmdsRspCmd,       zcl_HandleExternal              },
//  298   /* ZCL_CMD_DISCOVER_CMDS_GEN */             { zclParseInDiscCmdsCmd,          zclProcessInDiscCmd             },
//  299   /* ZCL_CMD_DISCOVER_CMDS_GEN_RSP */         { zclParseInDiscCmdsRspCmd,       zcl_HandleExternal              },
//  300   /* ZCL_CMD_DISCOVER_ATTRS_EXT */            { zclParseInDiscAttrsCmd,         zclProcessInDiscAttrs           },
//  301   /* ZCL_CMD_DISCOVER_ATTRS_EXT_RSP */        { zclParseInDiscAttrsExtRspCmd,   zcl_HandleExternal              },
//  302 #else
//  303   /* ZCL_CMD_DISCOVER_ATTRS */                { (zclParseInProfileCmd_t)NULL,    (zclProcessInProfileCmd_t)NULL  },
//  304   /* ZCL_CMD_DISCOVER_ATTRS_RSP */            { (zclParseInProfileCmd_t)NULL,   (zclProcessInProfileCmd_t)NULL  },
//  305   /* *not supported* READ_ATTRS_STRCT */      { (zclParseInProfileCmd_t)NULL,   (zclProcessInProfileCmd_t)NULL  },
//  306   /* *not supported* WRITE_ATTRS_STRCT */     { (zclParseInProfileCmd_t)NULL,   (zclProcessInProfileCmd_t)NULL  },
//  307   /* *not supported* WRITE_ATTRS_STRCT_RSP */ { (zclParseInProfileCmd_t)NULL,   (zclProcessInProfileCmd_t)NULL  },
//  308   /* ZCL_CMD_DISCOVER_CMDS_RECEIVED */        { (zclParseInProfileCmd_t)NULL,   (zclProcessInProfileCmd_t)NULL  },
//  309   /* ZCL_CMD_DISCOVER_CMDS_RECEIVED_RSP */    { (zclParseInProfileCmd_t)NULL,   (zclProcessInProfileCmd_t)NULL  },
//  310   /* ZCL_CMD_DISCOVER_CMDS_GEN */             { (zclParseInProfileCmd_t)NULL,   (zclProcessInProfileCmd_t)NULL  },
//  311   /* ZCL_CMD_DISCOVER_CMDS_GEN_RSP */         { (zclParseInProfileCmd_t)NULL,   (zclProcessInProfileCmd_t)NULL  },
//  312   /* ZCL_CMD_DISCOVER_ATTRS_EXT */            { (zclParseInProfileCmd_t)NULL,   (zclProcessInProfileCmd_t)NULL  },
//  313   /* ZCL_CMD_DISCOVER_ATTRS_EXT_RSP */        { (zclParseInProfileCmd_t)NULL,   (zclProcessInProfileCmd_t)NULL  },
//  314 #endif // ZCL_DISCOVER
//  315 };
//  316 
//  317 /*********************************************************************
//  318  * PUBLIC FUNCTIONS
//  319  *********************************************************************/
//  320 
//  321 #if !defined ( ZCL_STANDALONE )
//  322 /*********************************************************************
//  323  * @fn          zcl_Init
//  324  *
//  325  * @brief       Initialization function for the zcl layer.
//  326  *
//  327  * @param       task_id - ZCL task id
//  328  *
//  329  * @return      none
//  330  */

        RSEG BANKED_CODE:CODE:NOROOT(0)
//  331 void zcl_Init( uint8 task_id )
zcl_Init:
          CFI Block cfiBlock0 Using cfiCommon0
          CFI Function zcl_Init
        CODE
//  332 {
        PUSH    DPL
          CFI DPL0 Frame(CFA_SP, 4)
          CFI CFA_SP SP+-4
        PUSH    DPH
          CFI DPH0 Frame(CFA_SP, 5)
          CFI CFA_SP SP+-5
        ; Saved register size: 2
        ; Auto size: 0
//  333   zcl_TaskID = task_id;
        MOV     A,R1
        MOV     DPTR,#zcl_TaskID
        MOVX    @DPTR,A
//  334 }
        LJMP    ?Subroutine0 & 0xFFFF
          CFI EndBlock cfiBlock0
//  335 #endif
//  336 
//  337 #if !defined ( ZCL_STANDALONE )
//  338 /*********************************************************************
//  339  * @fn          zcl_event_loop
//  340  *
//  341  * @brief       Event Loop Processor for zcl.
//  342  *
//  343  * @param       task_id - task id
//  344  * @param       events - event bitmap
//  345  *
//  346  * @return      unprocessed events
//  347  */

        RSEG BANKED_CODE:CODE:NOROOT(0)
//  348 uint16 zcl_event_loop( uint8 task_id, uint16 events )
zcl_event_loop:
          CFI Block cfiBlock1 Using cfiCommon0
          CFI Function zcl_event_loop
        CODE
//  349 {
        FUNCALL zcl_event_loop, osal_msg_receive
        LOCFRAME ISTACK, 0, STACK
        LOCFRAME PSTACK, 0, STACK
        LOCFRAME XSTACK, 12, STACK
        LOCFRAME IOVERLAY, 0, STATIC
        LOCFRAME DOVERLAY, 0, STATIC
        ARGFRAME ISTACK, 0, STACK
        ARGFRAME PSTACK, 0, STACK
        ARGFRAME XSTACK, 12, STACK
        ARGFRAME IOVERLAY, 0, STATIC
        ARGFRAME DOVERLAY, 0, STATIC
        FUNCALL zcl_event_loop, zcl_ProcessMessageMSG
        LOCFRAME ISTACK, 0, STACK
        LOCFRAME PSTACK, 0, STACK
        LOCFRAME XSTACK, 12, STACK
        LOCFRAME IOVERLAY, 0, STATIC
        LOCFRAME DOVERLAY, 0, STATIC
        ARGFRAME ISTACK, 0, STACK
        ARGFRAME PSTACK, 0, STACK
        ARGFRAME XSTACK, 12, STACK
        ARGFRAME IOVERLAY, 0, STATIC
        ARGFRAME DOVERLAY, 0, STATIC
        FUNCALL zcl_event_loop, osal_msg_deallocate
        LOCFRAME ISTACK, 0, STACK
        LOCFRAME PSTACK, 0, STACK
        LOCFRAME XSTACK, 12, STACK
        LOCFRAME IOVERLAY, 0, STATIC
        LOCFRAME DOVERLAY, 0, STATIC
        ARGFRAME ISTACK, 0, STACK
        ARGFRAME PSTACK, 0, STACK
        ARGFRAME XSTACK, 12, STACK
        ARGFRAME IOVERLAY, 0, STATIC
        ARGFRAME DOVERLAY, 0, STATIC
        FUNCALL zcl_event_loop, osal_msg_receive
        LOCFRAME ISTACK, 0, STACK
        LOCFRAME PSTACK, 0, STACK
        LOCFRAME XSTACK, 12, STACK
        LOCFRAME IOVERLAY, 0, STATIC
        LOCFRAME DOVERLAY, 0, STATIC
        ARGFRAME ISTACK, 0, STACK
        ARGFRAME PSTACK, 0, STACK
        ARGFRAME XSTACK, 12, STACK
        ARGFRAME IOVERLAY, 0, STATIC
        ARGFRAME DOVERLAY, 0, STATIC
        FUNCALL zcl_event_loop, osal_msg_send
        LOCFRAME ISTACK, 0, STACK
        LOCFRAME PSTACK, 0, STACK
        LOCFRAME XSTACK, 12, STACK
        LOCFRAME IOVERLAY, 0, STATIC
        LOCFRAME DOVERLAY, 0, STATIC
        ARGFRAME ISTACK, 0, STACK
        ARGFRAME PSTACK, 0, STACK
        ARGFRAME XSTACK, 12, STACK
        ARGFRAME IOVERLAY, 0, STATIC
        ARGFRAME DOVERLAY, 0, STATIC
        REQUIRE ?V0
        REQUIRE ?V1
        REQUIRE ?V2
        REQUIRE ?V3
        MOV     A,#-0xc
        LCALL   ?BANKED_ENTER_XDATA
          CFI DPH0 load(1, XDATA, add(CFA_XSP16, literal(-1)))
          CFI DPL0 load(1, XDATA, add(CFA_XSP16, literal(-2)))
          CFI ?BRET_EXT load(1, XDATA, add(CFA_XSP16, literal(-3)))
          CFI ?RET_HIGH load(1, XDATA, add(CFA_XSP16, literal(-4)))
          CFI ?RET_LOW load(1, XDATA, add(CFA_XSP16, literal(-5)))
          CFI R7 load(1, XDATA, add(CFA_XSP16, literal(-6)))
          CFI V3 load(1, XDATA, add(CFA_XSP16, literal(-7)))
          CFI V2 load(1, XDATA, add(CFA_XSP16, literal(-8)))
          CFI V1 load(1, XDATA, add(CFA_XSP16, literal(-9)))
          CFI V0 load(1, XDATA, add(CFA_XSP16, literal(-10)))
          CFI VB load(1, XDATA, add(CFA_XSP16, literal(-11)))
          CFI R6 load(1, XDATA, add(CFA_XSP16, literal(-12)))
          CFI CFA_SP SP+0
          CFI CFA_XSP16 add(XSP16, 12)
        ; Saved register size: 12
        ; Auto size: 0
        MOV     ?V0,R2
        MOV     ?V1,R3
//  350   uint8 *msgPtr;
//  351 
//  352   (void)task_id;  // Intentionally unreferenced parameter
//  353 
//  354   if ( events & SYS_EVENT_MSG )
        MOV     A,R3
        ANL     A,#0x80
        JZ      ??zcl_event_loop_0
//  355   {
//  356     msgPtr = osal_msg_receive( zcl_TaskID );
        ; Setup parameters for call to function osal_msg_receive
        SJMP    ??zcl_event_loop_1
//  357     while ( msgPtr != NULL )
//  358     {
//  359       uint8 dealloc = TRUE;
//  360 
//  361       if ( *msgPtr == AF_INCOMING_MSG_CMD )
//  362       {
//  363         zcl_ProcessMessageMSG( (afIncomingMSGPacket_t *)msgPtr );
??zcl_event_loop_2:
        ; Setup parameters for call to function zcl_ProcessMessageMSG
        MOV     A,R6
        MOV     R2,A
        MOV     A,R7
        MOV     R3,A
        LCALL   ??zcl_ProcessMessageMSG?relay; Banked call to: zcl_ProcessMessageMSG
//  364       }
//  365       else if ( zcl_RegisteredMsgTaskID != TASK_NO_TASK )
//  366       {
//  367         // send it to another task to process.
//  368         osal_msg_send( zcl_RegisteredMsgTaskID, msgPtr );
//  369         dealloc = FALSE;
//  370       }
//  371 
//  372       // Release the memory
//  373       if ( dealloc )
//  374       {
//  375         osal_msg_deallocate( msgPtr );
??zcl_event_loop_3:
        ; Setup parameters for call to function osal_msg_deallocate
        MOV     A,R6
        MOV     R2,A
        MOV     A,R7
        MOV     R3,A
        LCALL   ??osal_msg_deallocate?relay; Banked call to: osal_msg_deallocate
//  376       }
//  377 
//  378       // Next
//  379       msgPtr = osal_msg_receive( zcl_TaskID );
??zcl_event_loop_1:
        ; Setup parameters for call to function osal_msg_receive
        MOV     DPTR,#zcl_TaskID
        MOVX    A,@DPTR
        MOV     R1,A
        LCALL   ??osal_msg_receive?relay; Banked call to: osal_msg_receive
        MOV     ?V2,R2
        MOV     ?V3,R3
        MOV     R6,?V2
        MOV     R7,?V3
        MOV     A,R6
        ORL     A,R7
        JZ      ??zcl_event_loop_4
        MOV     DPL,R6
        MOV     DPH,R7
        MOVX    A,@DPTR
        XRL     A,#0x1a
        JZ      ??zcl_event_loop_2
        MOV     DPTR,#zcl_RegisteredMsgTaskID
        MOVX    A,@DPTR
        CPL     A
        JZ      ??zcl_event_loop_3
        ; Setup parameters for call to function osal_msg_send
        MOV     A,R6
        MOV     R2,A
        MOV     A,R7
        MOV     R3,A
        MOVX    A,@DPTR
        MOV     R1,A
        LCALL   ??osal_msg_send?relay; Banked call to: osal_msg_send
        SJMP    ??zcl_event_loop_1
//  380     }
//  381 
//  382     // return unprocessed events
//  383     return (events ^ SYS_EVENT_MSG);
??zcl_event_loop_4:
        MOV     R2,?V0
        MOV     A,?V1
        XRL     A,#0x80
        MOV     R3,A
        SJMP    ??zcl_event_loop_5
//  384   }
//  385 
//  386   // Discard unknown events
//  387   return 0;
??zcl_event_loop_0:
        MOV     R2,#0x0
        MOV     R3,#0x0
??zcl_event_loop_5:
        LJMP    ?Subroutine1 & 0xFFFF
          CFI EndBlock cfiBlock1
//  388 }
//  389 #endif
//  390 
//  391 #if !defined ( ZCL_STANDALONE )
//  392 /*********************************************************************
//  393  * @fn      zcl_registerForMsg
//  394  *
//  395  * @brief   The ZCL is setup to send all incoming Foundation Command/Response
//  396  *          messages that aren't processed to one task (if a task is
//  397  *          registered).
//  398  *
//  399  * @param   taskId - task Id of the Application where commands will be sent to
//  400  *
//  401  * @return  TRUE if task registeration successful, FALSE otherwise
//  402  *********************************************************************/

        RSEG BANKED_CODE:CODE:NOROOT(0)
//  403 uint8 zcl_registerForMsg( uint8 taskId )
zcl_registerForMsg:
          CFI Block cfiBlock2 Using cfiCommon0
          CFI Function zcl_registerForMsg
        CODE
//  404 {
        PUSH    DPL
          CFI DPL0 Frame(CFA_SP, 4)
          CFI CFA_SP SP+-4
        PUSH    DPH
          CFI DPH0 Frame(CFA_SP, 5)
          CFI CFA_SP SP+-5
        ; Saved register size: 2
        ; Auto size: 0
        MOV     A,R1
        MOV     R0,A
//  405   // Allow only the first task
//  406   if ( zcl_RegisteredMsgTaskID == TASK_NO_TASK )
        MOV     DPTR,#zcl_RegisteredMsgTaskID
        MOVX    A,@DPTR
        CPL     A
        JNZ     ??zcl_registerForMsg_0
//  407   {
//  408     zcl_RegisteredMsgTaskID = taskId;
        MOV     A,R0
        MOVX    @DPTR,A
//  409 
//  410     return ( true );
        MOV     R1,#0x1
        SJMP    ??zcl_registerForMsg_1
//  411   }
//  412 
//  413   return ( false );
??zcl_registerForMsg_0:
        MOV     R1,#0x0
??zcl_registerForMsg_1:
        LJMP    ?Subroutine0 & 0xFFFF
          CFI EndBlock cfiBlock2
//  414 }
//  415 #endif
//  416 
//  417 #if !defined ( ZCL_STANDALONE )
//  418 /*********************************************************************
//  419  * @fn      zcl_HandleExternal
//  420  *
//  421  * @brief
//  422  *
//  423  * @param   pInMsg - incoming message to process
//  424  *
//  425  * @return  TRUE
//  426  */

        RSEG BANKED_CODE:CODE:NOROOT(0)
//  427 uint8 zcl_HandleExternal( zclIncoming_t *pInMsg )
zcl_HandleExternal:
          CFI Block cfiBlock3 Using cfiCommon0
          CFI Function zcl_HandleExternal
        CODE
//  428 {
        FUNCALL zcl_HandleExternal, osal_msg_allocate
        LOCFRAME ISTACK, 0, STACK
        LOCFRAME PSTACK, 0, STACK
        LOCFRAME XSTACK, 10, STACK
        LOCFRAME IOVERLAY, 0, STATIC
        LOCFRAME DOVERLAY, 0, STATIC
        ARGFRAME ISTACK, 0, STACK
        ARGFRAME PSTACK, 0, STACK
        ARGFRAME XSTACK, 10, STACK
        ARGFRAME IOVERLAY, 0, STATIC
        ARGFRAME DOVERLAY, 0, STATIC
        FUNCALL zcl_HandleExternal, osal_msg_send
        LOCFRAME ISTACK, 0, STACK
        LOCFRAME PSTACK, 0, STACK
        LOCFRAME XSTACK, 10, STACK
        LOCFRAME IOVERLAY, 0, STATIC
        LOCFRAME DOVERLAY, 0, STATIC
        ARGFRAME ISTACK, 0, STACK
        ARGFRAME PSTACK, 0, STACK
        ARGFRAME XSTACK, 10, STACK
        ARGFRAME IOVERLAY, 0, STATIC
        ARGFRAME DOVERLAY, 0, STATIC
        REQUIRE ?V0
        REQUIRE ?V1
        MOV     A,#-0xa
        LCALL   ?BANKED_ENTER_XDATA
          CFI DPH0 load(1, XDATA, add(CFA_XSP16, literal(-1)))
          CFI DPL0 load(1, XDATA, add(CFA_XSP16, literal(-2)))
          CFI ?BRET_EXT load(1, XDATA, add(CFA_XSP16, literal(-3)))
          CFI ?RET_HIGH load(1, XDATA, add(CFA_XSP16, literal(-4)))
          CFI ?RET_LOW load(1, XDATA, add(CFA_XSP16, literal(-5)))
          CFI R7 load(1, XDATA, add(CFA_XSP16, literal(-6)))
          CFI V1 load(1, XDATA, add(CFA_XSP16, literal(-7)))
          CFI V0 load(1, XDATA, add(CFA_XSP16, literal(-8)))
          CFI VB load(1, XDATA, add(CFA_XSP16, literal(-9)))
          CFI R6 load(1, XDATA, add(CFA_XSP16, literal(-10)))
          CFI CFA_SP SP+0
          CFI CFA_XSP16 add(XSP16, 10)
        ; Saved register size: 10
        ; Auto size: 0
        MOV     A,R2
        MOV     R6,A
        MOV     A,R3
        MOV     R7,A
//  429   zclIncomingMsg_t *pCmd;
//  430 
//  431   if ( zcl_RegisteredMsgTaskID == TASK_NO_TASK )
        MOV     DPTR,#zcl_RegisteredMsgTaskID
        MOVX    A,@DPTR
        CPL     A
        JNZ     $+5
        LJMP    ??zcl_HandleExternal_0 & 0xFFFF
//  432   {
//  433     return ( TRUE );
//  434   }
//  435 
//  436   pCmd = (zclIncomingMsg_t *)osal_msg_allocate( sizeof ( zclIncomingMsg_t ) );
        ; Setup parameters for call to function osal_msg_allocate
        MOV     R2,#0x19
        MOV     R3,#0x0
        LCALL   ??osal_msg_allocate?relay; Banked call to: osal_msg_allocate
//  437   if ( pCmd != NULL )
        MOV     A,R2
        ORL     A,R3
        JNZ     $+5
        LJMP    ??zcl_HandleExternal_0 & 0xFFFF
//  438   {
//  439     // fill in the message
//  440     pCmd->hdr.event = ZCL_INCOMING_MSG;
        MOV     DPL,R2
        MOV     DPH,R3
        MOV     A,#0x34
        LCALL   ??Subroutine178_0 & 0xFFFF
//  441     pCmd->zclHdr    = pInMsg->hdr;
??CrossCallReturnLabel_311:
        INC     DPTR
        MOV     A,R2
        ADD     A,#0x2
        MOV     R4,A
        CLR     A
        ADDC    A,R3
        MOV     R5,A
        MOV     A,#0x6
        LCALL   ?MOVE_LONG8_XDATA_XDATA
//  442     pCmd->clusterId = pInMsg->msg->clusterId;
        MOV     DPL,R6
        MOV     DPH,R7
        LCALL   ?Subroutine97 & 0xFFFF
??CrossCallReturnLabel_161:
        LCALL   ?Subroutine88 & 0xFFFF
??CrossCallReturnLabel_500:
        MOV     DPL,R2
        MOV     DPH,R3
        INC     DPTR
        INC     DPTR
        INC     DPTR
        INC     DPTR
        INC     DPTR
        INC     DPTR
        INC     DPTR
        INC     DPTR
        MOV     A,R4
        MOVX    @DPTR,A
        INC     DPTR
        MOV     A,R5
        LCALL   ?Subroutine31 & 0xFFFF
//  443     pCmd->srcAddr   = pInMsg->msg->srcAddr;
??CrossCallReturnLabel_26:
        MOV     A,R2
        ADD     A,#0xa
        MOV     R4,A
        CLR     A
        ADDC    A,R3
        MOV     R5,A
        MOV     A,#0xc
        LCALL   ?MOVE_LONG8_XDATA_XDATA
//  444     pCmd->endPoint  = pInMsg->msg->endPoint;
        MOV     DPL,R6
        MOV     DPH,R7
        LCALL   ?Subroutine165 & 0xFFFF
??CrossCallReturnLabel_418:
        XCH     A,R0
        LCALL   ?Subroutine111 & 0xFFFF
??CrossCallReturnLabel_187:
        ADDC    A,R0
        MOV     DPH,A
        MOVX    A,@DPTR
        PUSH    A
          CFI CFA_SP SP+-1
        MOV     A,R2
        ADD     A,#0x16
        MOV     DPL,A
        CLR     A
        ADDC    A,R3
        MOV     DPH,A
        POP     A
          CFI CFA_SP SP+0
        MOVX    @DPTR,A
//  445     pCmd->attrCmd   = pInMsg->attrCmd;
        MOV     A,R6
        ADD     A,#0xc
        MOV     R0,A
        CLR     A
        ADDC    A,R7
        MOV     R1,A
        MOV     DPL,R0
        MOV     DPH,R1
        LCALL   ??Subroutine214_0 & 0xFFFF
??CrossCallReturnLabel_493:
        MOV     A,R2
        ADD     A,#0x17
        MOV     DPL,A
        CLR     A
        ADDC    A,R3
        MOV     DPH,A
        MOV     A,R4
        MOVX    @DPTR,A
        INC     DPTR
        MOV     A,R5
        MOVX    @DPTR,A
//  446 
//  447     // Application will free the attrCmd buffer
//  448     pInMsg->attrCmd = NULL;
        MOV     DPL,R0
        MOV     DPH,R1
        CLR     A
        MOVX    @DPTR,A
        INC     DPTR
        MOVX    @DPTR,A
//  449 
//  450     /* send message through task message */
//  451     osal_msg_send( zcl_RegisteredMsgTaskID, (uint8 *)pCmd );
        ; Setup parameters for call to function osal_msg_send
        MOV     DPTR,#zcl_RegisteredMsgTaskID
        MOVX    A,@DPTR
        MOV     R1,A
        LCALL   ??osal_msg_send?relay; Banked call to: osal_msg_send
//  452   }
//  453 
//  454   return ( TRUE );
??zcl_HandleExternal_0:
        MOV     R1,#0x1
        LJMP    ?Subroutine2 & 0xFFFF
          CFI EndBlock cfiBlock3
//  455 }
//  456 #endif
//  457 
//  458 
//  459 /*********************************************************************
//  460  * @fn          zcl_getRawAFMsg
//  461  *
//  462  * @brief       Call to get original unprocessed AF message
//  463  *              (not parsed by ZCL).
//  464  *
//  465  *   NOTE:  This function can only be called during a ZCL callback function
//  466  *          and the calling function must NOT change any data in the message.
//  467  *
//  468  * @param       none
//  469  *
//  470  * @return      pointer to original AF message, NULL if not processing
//  471  *              AF message.
//  472  */

        RSEG BANKED_CODE:CODE:NOROOT(0)
//  473 afIncomingMSGPacket_t *zcl_getRawAFMsg( void )
zcl_getRawAFMsg:
          CFI Block cfiBlock4 Using cfiCommon0
          CFI Function zcl_getRawAFMsg
        CODE
//  474 {
        PUSH    DPL
          CFI DPL0 Frame(CFA_SP, 4)
          CFI CFA_SP SP+-4
        PUSH    DPH
          CFI DPH0 Frame(CFA_SP, 5)
          CFI CFA_SP SP+-5
        ; Saved register size: 2
        ; Auto size: 0
//  475   return ( rawAFMsg );
        MOV     DPTR,#rawAFMsg
        LCALL   ??Subroutine185_0 & 0xFFFF
??CrossCallReturnLabel_340:
        SJMP    ?Subroutine0
          CFI EndBlock cfiBlock4
//  476 }
//  477 
//  478 /*********************************************************************
//  479  * @fn          zcl_getParsedTransSeqNum
//  480  *
//  481  * @brief       Call to the get the transaction sequence number from 
//  482  *              the incoming message.
//  483  *
//  484  *   NOTE:  This function can only be called during a ZCL callback function
//  485  *          and the calling function must NOT change any data in the message.
//  486  *
//  487  * @param       none
//  488  *
//  489  * @return      transaction sequence number.
//  490  */

        RSEG BANKED_CODE:CODE:NOROOT(0)
//  491 uint8 zcl_getParsedTransSeqNum( void )
zcl_getParsedTransSeqNum:
          CFI Block cfiBlock5 Using cfiCommon0
          CFI Function zcl_getParsedTransSeqNum
        CODE
//  492 {
        PUSH    DPL
          CFI DPL0 Frame(CFA_SP, 4)
          CFI CFA_SP SP+-4
        PUSH    DPH
          CFI DPH0 Frame(CFA_SP, 5)
          CFI CFA_SP SP+-5
        ; Saved register size: 2
        ; Auto size: 0
//  493   return ( savedZCLTransSeqNum );
        MOV     DPTR,#savedZCLTransSeqNum
        MOVX    A,@DPTR
        MOV     R1,A
          CFI EndBlock cfiBlock5
        REQUIRE ?Subroutine0
        ; // Fall through to label ?Subroutine0
//  494 }

        RSEG BANKED_CODE:CODE:NOROOT(0)
?Subroutine0:
          CFI Block cfiBlock6 Using cfiCommon0
          CFI NoFunction
          CFI CFA_SP SP+-5
          CFI DPL0 Frame(CFA_SP, 4)
          CFI DPH0 Frame(CFA_SP, 5)
        POP     DPH
          CFI CFA_SP SP+-4
          CFI DPH0 SameValue
        POP     DPL
          CFI CFA_SP SP+-3
          CFI DPL0 SameValue
        LJMP    ?BRET
          CFI EndBlock cfiBlock6
//  495 
//  496 /*********************************************************************
//  497  * @fn          zcl_registerPlugin
//  498  *
//  499  * @brief       Add a Cluster Library handler
//  500  *
//  501  * @param       startClusterID - starting cluster ID
//  502  * @param       endClusterID - ending cluster ID
//  503  * @param       pfnHdlr - function pointer to incoming message handler
//  504  *
//  505  * @return      ZSuccess if OK
//  506  */

        RSEG BANKED_CODE:CODE:NOROOT(0)
//  507 ZStatus_t zcl_registerPlugin( uint16 startClusterID, uint16 endClusterID, zclInHdlr_t pfnIncomingHdlr ){
zcl_registerPlugin:
          CFI Block cfiBlock7 Using cfiCommon0
          CFI Function zcl_registerPlugin
        CODE
        FUNCALL zcl_registerPlugin, osal_mem_alloc
        LOCFRAME ISTACK, 0, STACK
        LOCFRAME PSTACK, 0, STACK
        LOCFRAME XSTACK, 12, STACK
        LOCFRAME IOVERLAY, 0, STATIC
        LOCFRAME DOVERLAY, 0, STATIC
        ARGFRAME ISTACK, 0, STACK
        ARGFRAME PSTACK, 0, STACK
        ARGFRAME XSTACK, 12, STACK
        ARGFRAME IOVERLAY, 0, STATIC
        ARGFRAME DOVERLAY, 0, STATIC
        REQUIRE ?V0
        REQUIRE ?V1
        REQUIRE ?V2
        REQUIRE ?V3
        MOV     A,#-0xc
        LCALL   ?BANKED_ENTER_XDATA
          CFI DPH0 load(1, XDATA, add(CFA_XSP16, literal(-1)))
          CFI DPL0 load(1, XDATA, add(CFA_XSP16, literal(-2)))
          CFI ?BRET_EXT load(1, XDATA, add(CFA_XSP16, literal(-3)))
          CFI ?RET_HIGH load(1, XDATA, add(CFA_XSP16, literal(-4)))
          CFI ?RET_LOW load(1, XDATA, add(CFA_XSP16, literal(-5)))
          CFI R7 load(1, XDATA, add(CFA_XSP16, literal(-6)))
          CFI V3 load(1, XDATA, add(CFA_XSP16, literal(-7)))
          CFI V2 load(1, XDATA, add(CFA_XSP16, literal(-8)))
          CFI V1 load(1, XDATA, add(CFA_XSP16, literal(-9)))
          CFI V0 load(1, XDATA, add(CFA_XSP16, literal(-10)))
          CFI VB load(1, XDATA, add(CFA_XSP16, literal(-11)))
          CFI R6 load(1, XDATA, add(CFA_XSP16, literal(-12)))
          CFI CFA_SP SP+0
          CFI CFA_XSP16 add(XSP16, 12)
        ; Saved register size: 12
        ; Auto size: 0
        MOV     ?V0,R2
        MOV     ?V1,R3
        MOV     A,R4
        MOV     R6,A
        MOV     A,R5
        MOV     R7,A
//  508   zclLibPlugin_t *pNewItem;
//  509   zclLibPlugin_t *pLoop;
//  510 
//  511   // Fill in the new profile list
//  512   pNewItem = zcl_mem_alloc( sizeof( zclLibPlugin_t ) );
        ; Setup parameters for call to function osal_mem_alloc
        MOV     R2,#0x8
        MOV     R3,#0x0
        LCALL   ??osal_mem_alloc?relay; Banked call to: osal_mem_alloc
        MOV     ?V2,R2
        MOV     ?V3,R3
        MOV     R0,?V2
        MOV     R1,?V3
//  513   if ( pNewItem == NULL ){
        MOV     A,R0
        ORL     A,R1
        JNZ     ??zcl_registerPlugin_0
//  514     return (ZMemError);
        MOV     R1,#0x10
        SJMP    ??CrossCallReturnLabel_40
//  515   }
//  516 
//  517   // Fill in the plugin record.
//  518   pNewItem->next = (zclLibPlugin_t *)NULL;
??zcl_registerPlugin_0:
        MOV     DPL,R0
        MOV     DPH,R1
        CLR     A
        MOVX    @DPTR,A
        INC     DPTR
        LCALL   ?Subroutine42 & 0xFFFF
//  519   pNewItem->startClusterID = startClusterID;
??CrossCallReturnLabel_45:
        INC     DPTR
        MOV     A,?V0
        MOVX    @DPTR,A
        INC     DPTR
        LCALL   ?Subroutine26 & 0xFFFF
//  520   pNewItem->endClusterID = endClusterID;
//  521   pNewItem->pfnIncomingHdlr = pfnIncomingHdlr;
??CrossCallReturnLabel_20:
        MOV     A,#0xc
        LCALL   ?XSTACK_DISP0_8
        LCALL   ?Subroutine89 & 0xFFFF
??CrossCallReturnLabel_143:
        INC     DPTR
        INC     DPTR
        INC     DPTR
        INC     DPTR
        MOV     A,R2
        MOVX    @DPTR,A
        INC     DPTR
        MOV     A,R3
        MOVX    @DPTR,A
//  522 
//  523   // Find spot in list
//  524   if (  plugins == NULL )
        MOV     DPTR,#plugins
        LCALL   ??Subroutine167_0 & 0xFFFF
??CrossCallReturnLabel_275:
        MOV     DPTR,#plugins
        JZ      ??zcl_registerPlugin_1
//  525   {
//  526     plugins = pNewItem;
//  527   }
//  528   else
//  529   {
//  530     // Look for end of list
//  531     pLoop = plugins;
        LCALL   ?Subroutine163 & 0xFFFF
??CrossCallReturnLabel_514:
        SJMP    ??zcl_registerPlugin_2
//  532     while ( pLoop->next != NULL )
//  533     {
//  534       pLoop = pLoop->next;
??zcl_registerPlugin_3:
        MOV     A,R2
        MOV     R4,A
        MOV     A,R3
//  535     }
??zcl_registerPlugin_2:
        LCALL   ?Subroutine51 & 0xFFFF
??CrossCallReturnLabel_271:
        JNZ     ??zcl_registerPlugin_3
//  536 
//  537     // Put new item at end of list
//  538     pLoop->next = pNewItem;
        MOV     DPL,R4
        MOV     DPH,R5
//  539   }
??zcl_registerPlugin_1:
        LCALL   ?Subroutine39 & 0xFFFF
//  540 
//  541   return ( ZSuccess );
??CrossCallReturnLabel_40:
        LJMP    ?Subroutine1 & 0xFFFF
          CFI EndBlock cfiBlock7
//  542 }
//  543 
//  544 #ifdef ZCL_DISCOVER
//  545 /*********************************************************************
//  546  * @fn          zcl_registerCmdList
//  547  *
//  548  * @brief       Register a Command List with ZCL Foundation
//  549  *
//  550  * @param       endpoint - endpoint the attribute list belongs to
//  551  * @param       newCmdList - array of command records
//  552  *
//  553  * @return      ZSuccess if OK
//  554  */
//  555 ZStatus_t zcl_registerCmdList( uint8 endpoint, CONST uint8 cmdListSize, CONST zclCommandRec_t newCmdList[] )
//  556 {
//  557   zclCmdRecsList_t *pNewItem;
//  558   zclCmdRecsList_t *pLoop;
//  559 
//  560   // Fill in the new profile list
//  561   pNewItem = zcl_mem_alloc( sizeof( zclCmdRecsList_t ) );
//  562   if ( pNewItem == NULL )
//  563   {
//  564     return (ZMemError);
//  565   }
//  566 
//  567   pNewItem->pNext = (zclCmdRecsList_t *)NULL;
//  568   pNewItem->endpoint = endpoint;
//  569   pNewItem->numCommands = cmdListSize;
//  570   pNewItem->pCmdRecs = newCmdList;
//  571 
//  572   // Find spot in list
//  573   if ( gpCmdList == NULL )
//  574   {
//  575     gpCmdList = pNewItem;
//  576   }
//  577   else
//  578   {
//  579     // Look for end of list
//  580     pLoop = gpCmdList;
//  581     while ( pLoop->pNext != NULL )
//  582     {
//  583       pLoop = pLoop->pNext;
//  584     }
//  585 
//  586     // Put new item at end of list
//  587     pLoop->pNext = pNewItem;
//  588   }
//  589 
//  590   return ( ZSuccess );
//  591 }
//  592 #endif  // ZCL_DISCOVER
//  593 
//  594 /*********************************************************************
//  595  * @fn          zcl_registerAttrList
//  596  *
//  597  * @brief       Register an Attribute List with ZCL Foundation
//  598  *
//  599  * @param       endpoint - endpoint the attribute list belongs to
//  600  * @param       numAttr - number of attributes in list
//  601  * @param       newAttrList - array of Attribute records.
//  602  *                            NOTE: THE ATTRIBUTE IDs (FOR A CLUSTER) MUST BE IN
//  603  *                            ASCENDING ORDER. OTHERWISE, THE DISCOVERY RESPONSE
//  604  *                            COMMAND WILL NOT HAVE THE RIGHT ATTRIBUTE INFO
//  605  *
//  606  * @return      ZSuccess if OK
//  607  */

        RSEG BANKED_CODE:CODE:NOROOT(0)
//  608 ZStatus_t zcl_registerAttrList( uint8 endpoint, CONST zclAttrRec_t newAttrList[] )
zcl_registerAttrList:
          CFI Block cfiBlock8 Using cfiCommon0
          CFI Function zcl_registerAttrList
        CODE
//  609 {
        FUNCALL zcl_registerAttrList, osal_mem_alloc
        LOCFRAME ISTACK, 0, STACK
        LOCFRAME PSTACK, 0, STACK
        LOCFRAME XSTACK, 12, STACK
        LOCFRAME IOVERLAY, 0, STATIC
        LOCFRAME DOVERLAY, 0, STATIC
        ARGFRAME ISTACK, 0, STACK
        ARGFRAME PSTACK, 0, STACK
        ARGFRAME XSTACK, 12, STACK
        ARGFRAME IOVERLAY, 0, STATIC
        ARGFRAME DOVERLAY, 0, STATIC
        REQUIRE ?V0
        REQUIRE ?V2
        REQUIRE ?V3
        MOV     A,#-0xc
        LCALL   ?BANKED_ENTER_XDATA
          CFI DPH0 load(1, XDATA, add(CFA_XSP16, literal(-1)))
          CFI DPL0 load(1, XDATA, add(CFA_XSP16, literal(-2)))
          CFI ?BRET_EXT load(1, XDATA, add(CFA_XSP16, literal(-3)))
          CFI ?RET_HIGH load(1, XDATA, add(CFA_XSP16, literal(-4)))
          CFI ?RET_LOW load(1, XDATA, add(CFA_XSP16, literal(-5)))
          CFI R7 load(1, XDATA, add(CFA_XSP16, literal(-6)))
          CFI V3 load(1, XDATA, add(CFA_XSP16, literal(-7)))
          CFI V2 load(1, XDATA, add(CFA_XSP16, literal(-8)))
          CFI V1 load(1, XDATA, add(CFA_XSP16, literal(-9)))
          CFI V0 load(1, XDATA, add(CFA_XSP16, literal(-10)))
          CFI VB load(1, XDATA, add(CFA_XSP16, literal(-11)))
          CFI R6 load(1, XDATA, add(CFA_XSP16, literal(-12)))
          CFI CFA_SP SP+0
          CFI CFA_XSP16 add(XSP16, 12)
        ; Saved register size: 12
        ; Auto size: 0
        MOV     ?V0,R1
        MOV     A,R2
        MOV     R6,A
        MOV     A,R3
        MOV     R7,A
//  610   zclAttrRecsList *pNewItem;
//  611   zclAttrRecsList *pLoop;
//  612 
//  613   // Fill in the new profile list
//  614   pNewItem = zcl_mem_alloc( sizeof( zclAttrRecsList ) );
        ; Setup parameters for call to function osal_mem_alloc
        MOV     R2,#0x9
        MOV     R3,#0x0
        LCALL   ??osal_mem_alloc?relay; Banked call to: osal_mem_alloc
        MOV     ?V2,R2
        MOV     ?V3,R3
        MOV     R0,?V2
        MOV     R1,?V3
//  615   if ( pNewItem == NULL )  {
        MOV     A,R0
        ORL     A,R1
        JNZ     ??zcl_registerAttrList_0
//  616     return (ZMemError);
        MOV     R1,#0x10
        SJMP    ??CrossCallReturnLabel_41
//  617   }
//  618 
//  619   pNewItem->next = (zclAttrRecsList *)NULL;
??zcl_registerAttrList_0:
        LCALL   ?Subroutine22 & 0xFFFF
//  620   pNewItem->endpoint = endpoint;
//  621   pNewItem->pfnReadWriteCB = NULL;
??CrossCallReturnLabel_12:
        CLR     A
        MOVX    @DPTR,A
        INC     DPTR
        LCALL   ?Subroutine31 & 0xFFFF
//  622   pNewItem->attrs = newAttrList;
??CrossCallReturnLabel_27:
        INC     DPTR
        MOV     A,R6
        MOVX    @DPTR,A
        INC     DPTR
        MOV     A,R7
        MOVX    @DPTR,A
//  623 
//  624   // Find spot in list
//  625 	if ( attrList == NULL ){
        MOV     DPTR,#attrList
        LCALL   ??Subroutine167_0 & 0xFFFF
??CrossCallReturnLabel_276:
        MOV     DPTR,#attrList
        JZ      ??zcl_registerAttrList_1
//  626 		attrList = pNewItem;
//  627  	}  else  {
//  628     	// Look for end of list
//  629     	pLoop = attrList;
        LCALL   ?Subroutine163 & 0xFFFF
??CrossCallReturnLabel_515:
        SJMP    ??zcl_registerAttrList_2
//  630     	while ( pLoop->next != NULL ){
//  631 			pLoop = pLoop->next;
??zcl_registerAttrList_3:
        MOV     A,R2
        MOV     R4,A
        MOV     A,R3
//  632     	}
??zcl_registerAttrList_2:
        LCALL   ?Subroutine51 & 0xFFFF
??CrossCallReturnLabel_272:
        JNZ     ??zcl_registerAttrList_3
//  633 
//  634     	// Put new item at end of list
//  635     	pLoop->next = pNewItem;
        MOV     DPL,R4
        MOV     DPH,R5
//  636 	}
??zcl_registerAttrList_1:
        LCALL   ?Subroutine39 & 0xFFFF
//  637 
//  638 	return ( ZSuccess );
??CrossCallReturnLabel_41:
        LJMP    ?Subroutine1 & 0xFFFF
          CFI EndBlock cfiBlock8
//  639 }

        RSEG BANKED_CODE:CODE:NOROOT(0)
?Subroutine39:
          CFI Block cfiCond9 Using cfiCommon0
          CFI Function zcl_registerPlugin
          CFI Conditional ??CrossCallReturnLabel_40
          CFI R6 load(1, XDATA, add(CFA_XSP16, literal(-12)))
          CFI VB load(1, XDATA, add(CFA_XSP16, literal(-11)))
          CFI V0 load(1, XDATA, add(CFA_XSP16, literal(-10)))
          CFI V1 load(1, XDATA, add(CFA_XSP16, literal(-9)))
          CFI V2 load(1, XDATA, add(CFA_XSP16, literal(-8)))
          CFI V3 load(1, XDATA, add(CFA_XSP16, literal(-7)))
          CFI R7 load(1, XDATA, add(CFA_XSP16, literal(-6)))
          CFI ?RET_LOW load(1, XDATA, add(CFA_XSP16, literal(-5)))
          CFI ?RET_HIGH load(1, XDATA, add(CFA_XSP16, literal(-4)))
          CFI ?BRET_EXT load(1, XDATA, add(CFA_XSP16, literal(-3)))
          CFI DPL0 load(1, XDATA, add(CFA_XSP16, literal(-2)))
          CFI DPH0 load(1, XDATA, add(CFA_XSP16, literal(-1)))
          CFI CFA_SP SP+-2
          CFI CFA_XSP16 add(XSP16, 12)
          CFI Block cfiCond10 Using cfiCommon0
          CFI (cfiCond10) Function zcl_registerAttrList
          CFI (cfiCond10) Conditional ??CrossCallReturnLabel_41
          CFI (cfiCond10) R6 load(1, XDATA, add(CFA_XSP16, literal(-12)))
          CFI (cfiCond10) VB load(1, XDATA, add(CFA_XSP16, literal(-11)))
          CFI (cfiCond10) V0 load(1, XDATA, add(CFA_XSP16, literal(-10)))
          CFI (cfiCond10) V1 load(1, XDATA, add(CFA_XSP16, literal(-9)))
          CFI (cfiCond10) V2 load(1, XDATA, add(CFA_XSP16, literal(-8)))
          CFI (cfiCond10) V3 load(1, XDATA, add(CFA_XSP16, literal(-7)))
          CFI (cfiCond10) R7 load(1, XDATA, add(CFA_XSP16, literal(-6)))
          CFI (cfiCond10) ?RET_LOW load(1, XDATA, add(CFA_XSP16, literal(-5)))
          CFI (cfiCond10) ?RET_HIGH load(1, XDATA, add(CFA_XSP16, literal(-4)))
          CFI (cfiCond10) ?BRET_EXT load(1, XDATA, add(CFA_XSP16, literal(-3)))
          CFI (cfiCond10) DPL0 load(1, XDATA, add(CFA_XSP16, literal(-2)))
          CFI (cfiCond10) DPH0 load(1, XDATA, add(CFA_XSP16, literal(-1)))
          CFI (cfiCond10) CFA_SP SP+-2
          CFI (cfiCond10) CFA_XSP16 add(XSP16, 12)
          CFI Block cfiCond11 Using cfiCommon0
          CFI (cfiCond11) Function zcl_registerClusterOptionList
          CFI (cfiCond11) Conditional ??CrossCallReturnLabel_42
          CFI (cfiCond11) R6 load(1, XDATA, add(CFA_XSP16, literal(-12)))
          CFI (cfiCond11) VB load(1, XDATA, add(CFA_XSP16, literal(-11)))
          CFI (cfiCond11) V0 load(1, XDATA, add(CFA_XSP16, literal(-10)))
          CFI (cfiCond11) V1 load(1, XDATA, add(CFA_XSP16, literal(-9)))
          CFI (cfiCond11) V2 load(1, XDATA, add(CFA_XSP16, literal(-8)))
          CFI (cfiCond11) V3 load(1, XDATA, add(CFA_XSP16, literal(-7)))
          CFI (cfiCond11) R7 load(1, XDATA, add(CFA_XSP16, literal(-6)))
          CFI (cfiCond11) ?RET_LOW load(1, XDATA, add(CFA_XSP16, literal(-5)))
          CFI (cfiCond11) ?RET_HIGH load(1, XDATA, add(CFA_XSP16, literal(-4)))
          CFI (cfiCond11) ?BRET_EXT load(1, XDATA, add(CFA_XSP16, literal(-3)))
          CFI (cfiCond11) DPL0 load(1, XDATA, add(CFA_XSP16, literal(-2)))
          CFI (cfiCond11) DPH0 load(1, XDATA, add(CFA_XSP16, literal(-1)))
          CFI (cfiCond11) CFA_SP SP+-2
          CFI (cfiCond11) CFA_XSP16 add(XSP16, 12)
          CFI Block cfiPicker12 Using cfiCommon1
          CFI (cfiPicker12) NoFunction
          CFI (cfiPicker12) Picker
        MOV     A,R0
        MOVX    @DPTR,A
        INC     DPTR
        MOV     A,R1
        MOVX    @DPTR,A
        MOV     R1,#0x0
        RET
          CFI EndBlock cfiCond9
          CFI EndBlock cfiCond10
          CFI EndBlock cfiCond11
          CFI EndBlock cfiPicker12

        RSEG BANKED_CODE:CODE:NOROOT(0)
?Subroutine31:
          CFI Block cfiCond13 Using cfiCommon0
          CFI Function zcl_HandleExternal
          CFI Conditional ??CrossCallReturnLabel_26
          CFI R6 load(1, XDATA, add(CFA_XSP16, literal(-10)))
          CFI VB load(1, XDATA, add(CFA_XSP16, literal(-9)))
          CFI V0 load(1, XDATA, add(CFA_XSP16, literal(-8)))
          CFI V1 load(1, XDATA, add(CFA_XSP16, literal(-7)))
          CFI R7 load(1, XDATA, add(CFA_XSP16, literal(-6)))
          CFI ?RET_LOW load(1, XDATA, add(CFA_XSP16, literal(-5)))
          CFI ?RET_HIGH load(1, XDATA, add(CFA_XSP16, literal(-4)))
          CFI ?BRET_EXT load(1, XDATA, add(CFA_XSP16, literal(-3)))
          CFI DPL0 load(1, XDATA, add(CFA_XSP16, literal(-2)))
          CFI DPH0 load(1, XDATA, add(CFA_XSP16, literal(-1)))
          CFI CFA_SP SP+-2
          CFI CFA_XSP16 add(XSP16, 10)
          CFI Block cfiCond14 Using cfiCommon0
          CFI (cfiCond14) Function zcl_registerAttrList
          CFI (cfiCond14) Conditional ??CrossCallReturnLabel_27
          CFI (cfiCond14) R6 load(1, XDATA, add(CFA_XSP16, literal(-12)))
          CFI (cfiCond14) VB load(1, XDATA, add(CFA_XSP16, literal(-11)))
          CFI (cfiCond14) V0 load(1, XDATA, add(CFA_XSP16, literal(-10)))
          CFI (cfiCond14) V1 load(1, XDATA, add(CFA_XSP16, literal(-9)))
          CFI (cfiCond14) V2 load(1, XDATA, add(CFA_XSP16, literal(-8)))
          CFI (cfiCond14) V3 load(1, XDATA, add(CFA_XSP16, literal(-7)))
          CFI (cfiCond14) R7 load(1, XDATA, add(CFA_XSP16, literal(-6)))
          CFI (cfiCond14) ?RET_LOW load(1, XDATA, add(CFA_XSP16, literal(-5)))
          CFI (cfiCond14) ?RET_HIGH load(1, XDATA, add(CFA_XSP16, literal(-4)))
          CFI (cfiCond14) ?BRET_EXT load(1, XDATA, add(CFA_XSP16, literal(-3)))
          CFI (cfiCond14) DPL0 load(1, XDATA, add(CFA_XSP16, literal(-2)))
          CFI (cfiCond14) DPH0 load(1, XDATA, add(CFA_XSP16, literal(-1)))
          CFI (cfiCond14) CFA_SP SP+-2
          CFI (cfiCond14) CFA_XSP16 add(XSP16, 12)
          CFI Block cfiPicker15 Using cfiCommon1
          CFI (cfiPicker15) NoFunction
          CFI (cfiPicker15) Picker
        LCALL   ?Subroutine129 & 0xFFFF
??CrossCallReturnLabel_221:
        INC     DPTR
        INC     DPTR
        RET
          CFI EndBlock cfiCond13
          CFI EndBlock cfiCond14
          CFI EndBlock cfiPicker15
//  640 
//  641 /*********************************************************************
//  642  * @fn          zcl_registerClusterOptionList
//  643  *
//  644  * @brief       Register a Cluster Option List with ZCL Foundation
//  645  *
//  646  * @param       endpoint - endpoint the option list belongs to
//  647  * @param       numOption - number of options in list
//  648  * @param       optionList - array of cluster option records.
//  649  *
//  650  *              NOTE: This API should be called to enable 'Application
//  651  *                    Link Key' security and/or 'APS ACK' for a specific
//  652  *                    Cluster. The 'Application Link Key' is discarded
//  653  *                    if security isn't enabled on the device.
//  654  *                    The default behavior is 'Network Key' when security
//  655  *                    is enabled and no 'APS ACK' for the ZCL messages.
//  656  *
//  657  * @return      ZSuccess if OK
//  658  */

        RSEG BANKED_CODE:CODE:NOROOT(0)
//  659 ZStatus_t zcl_registerClusterOptionList( uint8 endpoint, uint8 numOption, zclOptionRec_t optionList[] )
zcl_registerClusterOptionList:
          CFI Block cfiBlock16 Using cfiCommon0
          CFI Function zcl_registerClusterOptionList
        CODE
//  660 {
        FUNCALL zcl_registerClusterOptionList, osal_mem_alloc
        LOCFRAME ISTACK, 0, STACK
        LOCFRAME PSTACK, 0, STACK
        LOCFRAME XSTACK, 12, STACK
        LOCFRAME IOVERLAY, 0, STATIC
        LOCFRAME DOVERLAY, 0, STATIC
        ARGFRAME ISTACK, 0, STACK
        ARGFRAME PSTACK, 0, STACK
        ARGFRAME XSTACK, 12, STACK
        ARGFRAME IOVERLAY, 0, STATIC
        ARGFRAME DOVERLAY, 0, STATIC
        REQUIRE ?V0
        REQUIRE ?V1
        REQUIRE ?V2
        REQUIRE ?V3
        MOV     A,#-0xc
        LCALL   ?BANKED_ENTER_XDATA
          CFI DPH0 load(1, XDATA, add(CFA_XSP16, literal(-1)))
          CFI DPL0 load(1, XDATA, add(CFA_XSP16, literal(-2)))
          CFI ?BRET_EXT load(1, XDATA, add(CFA_XSP16, literal(-3)))
          CFI ?RET_HIGH load(1, XDATA, add(CFA_XSP16, literal(-4)))
          CFI ?RET_LOW load(1, XDATA, add(CFA_XSP16, literal(-5)))
          CFI R7 load(1, XDATA, add(CFA_XSP16, literal(-6)))
          CFI V3 load(1, XDATA, add(CFA_XSP16, literal(-7)))
          CFI V2 load(1, XDATA, add(CFA_XSP16, literal(-8)))
          CFI V1 load(1, XDATA, add(CFA_XSP16, literal(-9)))
          CFI V0 load(1, XDATA, add(CFA_XSP16, literal(-10)))
          CFI VB load(1, XDATA, add(CFA_XSP16, literal(-11)))
          CFI R6 load(1, XDATA, add(CFA_XSP16, literal(-12)))
          CFI CFA_SP SP+0
          CFI CFA_XSP16 add(XSP16, 12)
        ; Saved register size: 12
        ; Auto size: 0
        MOV     ?V0,R1
        MOV     ?V1,R2
        MOV     A,R4
        MOV     R6,A
        MOV     A,R5
        MOV     R7,A
//  661   zclClusterOptionList *pNewItem;
//  662   zclClusterOptionList *pLoop;
//  663 
//  664   // Fill in the new profile list
//  665   pNewItem = zcl_mem_alloc( sizeof( zclClusterOptionList ) );
        ; Setup parameters for call to function osal_mem_alloc
        MOV     R2,#0x6
        MOV     R3,#0x0
        LCALL   ??osal_mem_alloc?relay; Banked call to: osal_mem_alloc
        MOV     ?V2,R2
        MOV     ?V3,R3
        MOV     R0,?V2
        MOV     R1,?V3
//  666   if ( pNewItem == NULL )
        MOV     A,R0
        ORL     A,R1
        JNZ     ??zcl_registerClusterOptionList_0
//  667   {
//  668     return (ZMemError);
        MOV     R1,#0x10
        SJMP    ??CrossCallReturnLabel_42
//  669   }
//  670 
//  671   pNewItem->next = (zclClusterOptionList *)NULL;
??zcl_registerClusterOptionList_0:
        LCALL   ?Subroutine22 & 0xFFFF
//  672   pNewItem->endpoint = endpoint;
//  673   pNewItem->numOptions = numOption;
??CrossCallReturnLabel_13:
        LCALL   ?Subroutine26 & 0xFFFF
//  674   pNewItem->options = optionList;
//  675 
//  676   // Find spot in list
//  677   if ( clusterOptionList == NULL )
??CrossCallReturnLabel_21:
        MOV     DPTR,#clusterOptionList
        LCALL   ??Subroutine167_0 & 0xFFFF
??CrossCallReturnLabel_277:
        MOV     DPTR,#clusterOptionList
        JZ      ??zcl_registerClusterOptionList_1
//  678   {
//  679     clusterOptionList = pNewItem;
//  680   }
//  681   else
//  682   {
//  683     // Look for end of list
//  684     pLoop = clusterOptionList;
        LCALL   ?Subroutine163 & 0xFFFF
??CrossCallReturnLabel_516:
        SJMP    ??zcl_registerClusterOptionList_2
//  685     while ( pLoop->next != NULL )
//  686     {
//  687       pLoop = pLoop->next;
??zcl_registerClusterOptionList_3:
        MOV     A,R2
        MOV     R4,A
        MOV     A,R3
//  688     }
??zcl_registerClusterOptionList_2:
        LCALL   ?Subroutine51 & 0xFFFF
??CrossCallReturnLabel_273:
        JNZ     ??zcl_registerClusterOptionList_3
//  689 
//  690     // Put new item at end of list
//  691     pLoop->next = pNewItem;
        MOV     DPL,R4
        MOV     DPH,R5
//  692   }
??zcl_registerClusterOptionList_1:
        LCALL   ?Subroutine39 & 0xFFFF
//  693 
//  694   return ( ZSuccess );
??CrossCallReturnLabel_42:
        LJMP    ?Subroutine1 & 0xFFFF
          CFI EndBlock cfiBlock16
//  695 }

        RSEG BANKED_CODE:CODE:NOROOT(0)
?Subroutine26:
          CFI Block cfiCond17 Using cfiCommon0
          CFI Function zcl_registerPlugin
          CFI Conditional ??CrossCallReturnLabel_20
          CFI R6 load(1, XDATA, add(CFA_XSP16, literal(-12)))
          CFI VB load(1, XDATA, add(CFA_XSP16, literal(-11)))
          CFI V0 load(1, XDATA, add(CFA_XSP16, literal(-10)))
          CFI V1 load(1, XDATA, add(CFA_XSP16, literal(-9)))
          CFI V2 load(1, XDATA, add(CFA_XSP16, literal(-8)))
          CFI V3 load(1, XDATA, add(CFA_XSP16, literal(-7)))
          CFI R7 load(1, XDATA, add(CFA_XSP16, literal(-6)))
          CFI ?RET_LOW load(1, XDATA, add(CFA_XSP16, literal(-5)))
          CFI ?RET_HIGH load(1, XDATA, add(CFA_XSP16, literal(-4)))
          CFI ?BRET_EXT load(1, XDATA, add(CFA_XSP16, literal(-3)))
          CFI DPL0 load(1, XDATA, add(CFA_XSP16, literal(-2)))
          CFI DPH0 load(1, XDATA, add(CFA_XSP16, literal(-1)))
          CFI CFA_SP SP+-2
          CFI CFA_XSP16 add(XSP16, 12)
          CFI Block cfiCond18 Using cfiCommon0
          CFI (cfiCond18) Function zcl_registerClusterOptionList
          CFI (cfiCond18) Conditional ??CrossCallReturnLabel_21
          CFI (cfiCond18) R6 load(1, XDATA, add(CFA_XSP16, literal(-12)))
          CFI (cfiCond18) VB load(1, XDATA, add(CFA_XSP16, literal(-11)))
          CFI (cfiCond18) V0 load(1, XDATA, add(CFA_XSP16, literal(-10)))
          CFI (cfiCond18) V1 load(1, XDATA, add(CFA_XSP16, literal(-9)))
          CFI (cfiCond18) V2 load(1, XDATA, add(CFA_XSP16, literal(-8)))
          CFI (cfiCond18) V3 load(1, XDATA, add(CFA_XSP16, literal(-7)))
          CFI (cfiCond18) R7 load(1, XDATA, add(CFA_XSP16, literal(-6)))
          CFI (cfiCond18) ?RET_LOW load(1, XDATA, add(CFA_XSP16, literal(-5)))
          CFI (cfiCond18) ?RET_HIGH load(1, XDATA, add(CFA_XSP16, literal(-4)))
          CFI (cfiCond18) ?BRET_EXT load(1, XDATA, add(CFA_XSP16, literal(-3)))
          CFI (cfiCond18) DPL0 load(1, XDATA, add(CFA_XSP16, literal(-2)))
          CFI (cfiCond18) DPH0 load(1, XDATA, add(CFA_XSP16, literal(-1)))
          CFI (cfiCond18) CFA_SP SP+-2
          CFI (cfiCond18) CFA_XSP16 add(XSP16, 12)
          CFI Block cfiPicker19 Using cfiCommon1
          CFI (cfiPicker19) NoFunction
          CFI (cfiPicker19) Picker
        MOV     A,?V1
        LCALL   ?Subroutine129 & 0xFFFF
??CrossCallReturnLabel_222:
        MOV     A,R6
        MOVX    @DPTR,A
        INC     DPTR
        MOV     A,R7
        MOVX    @DPTR,A
        RET
          CFI EndBlock cfiCond17
          CFI EndBlock cfiCond18
          CFI EndBlock cfiPicker19

        RSEG BANKED_CODE:CODE:NOROOT(0)
?Subroutine129:
          CFI Block cfiCond20 Using cfiCommon0
          CFI Function zcl_HandleExternal
          CFI Conditional ??CrossCallReturnLabel_221, ??CrossCallReturnLabel_26
          CFI R6 load(1, XDATA, add(CFA_XSP16, literal(-10)))
          CFI VB load(1, XDATA, add(CFA_XSP16, literal(-9)))
          CFI V0 load(1, XDATA, add(CFA_XSP16, literal(-8)))
          CFI V1 load(1, XDATA, add(CFA_XSP16, literal(-7)))
          CFI R7 load(1, XDATA, add(CFA_XSP16, literal(-6)))
          CFI ?RET_LOW load(1, XDATA, add(CFA_XSP16, literal(-5)))
          CFI ?RET_HIGH load(1, XDATA, add(CFA_XSP16, literal(-4)))
          CFI ?BRET_EXT load(1, XDATA, add(CFA_XSP16, literal(-3)))
          CFI DPL0 load(1, XDATA, add(CFA_XSP16, literal(-2)))
          CFI DPH0 load(1, XDATA, add(CFA_XSP16, literal(-1)))
          CFI CFA_SP SP+-4
          CFI CFA_XSP16 add(XSP16, 10)
          CFI Block cfiCond21 Using cfiCommon0
          CFI (cfiCond21) Function zcl_registerAttrList
          CFI (cfiCond21) Conditional ??CrossCallReturnLabel_221, ??CrossCallReturnLabel_27
          CFI (cfiCond21) R6 load(1, XDATA, add(CFA_XSP16, literal(-12)))
          CFI (cfiCond21) VB load(1, XDATA, add(CFA_XSP16, literal(-11)))
          CFI (cfiCond21) V0 load(1, XDATA, add(CFA_XSP16, literal(-10)))
          CFI (cfiCond21) V1 load(1, XDATA, add(CFA_XSP16, literal(-9)))
          CFI (cfiCond21) V2 load(1, XDATA, add(CFA_XSP16, literal(-8)))
          CFI (cfiCond21) V3 load(1, XDATA, add(CFA_XSP16, literal(-7)))
          CFI (cfiCond21) R7 load(1, XDATA, add(CFA_XSP16, literal(-6)))
          CFI (cfiCond21) ?RET_LOW load(1, XDATA, add(CFA_XSP16, literal(-5)))
          CFI (cfiCond21) ?RET_HIGH load(1, XDATA, add(CFA_XSP16, literal(-4)))
          CFI (cfiCond21) ?BRET_EXT load(1, XDATA, add(CFA_XSP16, literal(-3)))
          CFI (cfiCond21) DPL0 load(1, XDATA, add(CFA_XSP16, literal(-2)))
          CFI (cfiCond21) DPH0 load(1, XDATA, add(CFA_XSP16, literal(-1)))
          CFI (cfiCond21) CFA_SP SP+-4
          CFI (cfiCond21) CFA_XSP16 add(XSP16, 12)
          CFI Block cfiCond22 Using cfiCommon0
          CFI (cfiCond22) Function zcl_registerPlugin
          CFI (cfiCond22) Conditional ??CrossCallReturnLabel_222, ??CrossCallReturnLabel_20
          CFI (cfiCond22) R6 load(1, XDATA, add(CFA_XSP16, literal(-12)))
          CFI (cfiCond22) VB load(1, XDATA, add(CFA_XSP16, literal(-11)))
          CFI (cfiCond22) V0 load(1, XDATA, add(CFA_XSP16, literal(-10)))
          CFI (cfiCond22) V1 load(1, XDATA, add(CFA_XSP16, literal(-9)))
          CFI (cfiCond22) V2 load(1, XDATA, add(CFA_XSP16, literal(-8)))
          CFI (cfiCond22) V3 load(1, XDATA, add(CFA_XSP16, literal(-7)))
          CFI (cfiCond22) R7 load(1, XDATA, add(CFA_XSP16, literal(-6)))
          CFI (cfiCond22) ?RET_LOW load(1, XDATA, add(CFA_XSP16, literal(-5)))
          CFI (cfiCond22) ?RET_HIGH load(1, XDATA, add(CFA_XSP16, literal(-4)))
          CFI (cfiCond22) ?BRET_EXT load(1, XDATA, add(CFA_XSP16, literal(-3)))
          CFI (cfiCond22) DPL0 load(1, XDATA, add(CFA_XSP16, literal(-2)))
          CFI (cfiCond22) DPH0 load(1, XDATA, add(CFA_XSP16, literal(-1)))
          CFI (cfiCond22) CFA_SP SP+-4
          CFI (cfiCond22) CFA_XSP16 add(XSP16, 12)
          CFI Block cfiCond23 Using cfiCommon0
          CFI (cfiCond23) Function zcl_registerClusterOptionList
          CFI (cfiCond23) Conditional ??CrossCallReturnLabel_222, ??CrossCallReturnLabel_21
          CFI (cfiCond23) R6 load(1, XDATA, add(CFA_XSP16, literal(-12)))
          CFI (cfiCond23) VB load(1, XDATA, add(CFA_XSP16, literal(-11)))
          CFI (cfiCond23) V0 load(1, XDATA, add(CFA_XSP16, literal(-10)))
          CFI (cfiCond23) V1 load(1, XDATA, add(CFA_XSP16, literal(-9)))
          CFI (cfiCond23) V2 load(1, XDATA, add(CFA_XSP16, literal(-8)))
          CFI (cfiCond23) V3 load(1, XDATA, add(CFA_XSP16, literal(-7)))
          CFI (cfiCond23) R7 load(1, XDATA, add(CFA_XSP16, literal(-6)))
          CFI (cfiCond23) ?RET_LOW load(1, XDATA, add(CFA_XSP16, literal(-5)))
          CFI (cfiCond23) ?RET_HIGH load(1, XDATA, add(CFA_XSP16, literal(-4)))
          CFI (cfiCond23) ?BRET_EXT load(1, XDATA, add(CFA_XSP16, literal(-3)))
          CFI (cfiCond23) DPL0 load(1, XDATA, add(CFA_XSP16, literal(-2)))
          CFI (cfiCond23) DPH0 load(1, XDATA, add(CFA_XSP16, literal(-1)))
          CFI (cfiCond23) CFA_SP SP+-4
          CFI (cfiCond23) CFA_XSP16 add(XSP16, 12)
          CFI Block cfiPicker24 Using cfiCommon1
          CFI (cfiPicker24) NoFunction
          CFI (cfiPicker24) Picker
        MOVX    @DPTR,A
        MOV     DPL,R0
        MOV     DPH,R1
        INC     DPTR
        INC     DPTR
        INC     DPTR
        INC     DPTR
        RET
          CFI EndBlock cfiCond20
          CFI EndBlock cfiCond21
          CFI EndBlock cfiCond22
          CFI EndBlock cfiCond23
          CFI EndBlock cfiPicker24

        RSEG BANKED_CODE:CODE:NOROOT(0)
?Subroutine22:
          CFI Block cfiCond25 Using cfiCommon0
          CFI Function zcl_registerAttrList
          CFI Conditional ??CrossCallReturnLabel_12
          CFI R6 load(1, XDATA, add(CFA_XSP16, literal(-12)))
          CFI VB load(1, XDATA, add(CFA_XSP16, literal(-11)))
          CFI V0 load(1, XDATA, add(CFA_XSP16, literal(-10)))
          CFI V1 load(1, XDATA, add(CFA_XSP16, literal(-9)))
          CFI V2 load(1, XDATA, add(CFA_XSP16, literal(-8)))
          CFI V3 load(1, XDATA, add(CFA_XSP16, literal(-7)))
          CFI R7 load(1, XDATA, add(CFA_XSP16, literal(-6)))
          CFI ?RET_LOW load(1, XDATA, add(CFA_XSP16, literal(-5)))
          CFI ?RET_HIGH load(1, XDATA, add(CFA_XSP16, literal(-4)))
          CFI ?BRET_EXT load(1, XDATA, add(CFA_XSP16, literal(-3)))
          CFI DPL0 load(1, XDATA, add(CFA_XSP16, literal(-2)))
          CFI DPH0 load(1, XDATA, add(CFA_XSP16, literal(-1)))
          CFI CFA_SP SP+-2
          CFI CFA_XSP16 add(XSP16, 12)
          CFI Block cfiCond26 Using cfiCommon0
          CFI (cfiCond26) Function zcl_registerClusterOptionList
          CFI (cfiCond26) Conditional ??CrossCallReturnLabel_13
          CFI (cfiCond26) R6 load(1, XDATA, add(CFA_XSP16, literal(-12)))
          CFI (cfiCond26) VB load(1, XDATA, add(CFA_XSP16, literal(-11)))
          CFI (cfiCond26) V0 load(1, XDATA, add(CFA_XSP16, literal(-10)))
          CFI (cfiCond26) V1 load(1, XDATA, add(CFA_XSP16, literal(-9)))
          CFI (cfiCond26) V2 load(1, XDATA, add(CFA_XSP16, literal(-8)))
          CFI (cfiCond26) V3 load(1, XDATA, add(CFA_XSP16, literal(-7)))
          CFI (cfiCond26) R7 load(1, XDATA, add(CFA_XSP16, literal(-6)))
          CFI (cfiCond26) ?RET_LOW load(1, XDATA, add(CFA_XSP16, literal(-5)))
          CFI (cfiCond26) ?RET_HIGH load(1, XDATA, add(CFA_XSP16, literal(-4)))
          CFI (cfiCond26) ?BRET_EXT load(1, XDATA, add(CFA_XSP16, literal(-3)))
          CFI (cfiCond26) DPL0 load(1, XDATA, add(CFA_XSP16, literal(-2)))
          CFI (cfiCond26) DPH0 load(1, XDATA, add(CFA_XSP16, literal(-1)))
          CFI (cfiCond26) CFA_SP SP+-2
          CFI (cfiCond26) CFA_XSP16 add(XSP16, 12)
          CFI Block cfiPicker27 Using cfiCommon1
          CFI (cfiPicker27) NoFunction
          CFI (cfiPicker27) Picker
        MOV     DPL,R0
        MOV     DPH,R1
        CLR     A
        MOVX    @DPTR,A
        INC     DPTR
        LCALL   ?Subroutine130 & 0xFFFF
??CrossCallReturnLabel_223:
        INC     DPTR
        MOV     A,?V0
        LCALL   ?Subroutine130 & 0xFFFF
??CrossCallReturnLabel_224:
        INC     DPTR
        INC     DPTR
        RET
          CFI EndBlock cfiCond25
          CFI EndBlock cfiCond26
          CFI EndBlock cfiPicker27
//  696 
//  697 /*********************************************************************
//  698  * @fn          zcl_registerValidateAttrData
//  699  *
//  700  * @brief       Add a validation function for attribute data
//  701  *
//  702  * @param       pfnValidateAttrData - function pointer to validate routine
//  703  *
//  704  * @return      ZSuccess if OK
//  705  */

        RSEG BANKED_CODE:CODE:NOROOT(0)
//  706 ZStatus_t zcl_registerValidateAttrData( zclValidateAttrData_t pfnValidateAttrData )
zcl_registerValidateAttrData:
          CFI Block cfiBlock28 Using cfiCommon0
          CFI Function zcl_registerValidateAttrData
        CODE
//  707 {
        PUSH    DPL
          CFI DPL0 Frame(CFA_SP, 4)
          CFI CFA_SP SP+-4
        PUSH    DPH
          CFI DPH0 Frame(CFA_SP, 5)
          CFI CFA_SP SP+-5
        ; Saved register size: 2
        ; Auto size: 0
//  708   zcl_ValidateAttrDataCB = pfnValidateAttrData;
        MOV     DPTR,#zcl_ValidateAttrDataCB
        MOV     A,R2
        MOVX    @DPTR,A
        INC     DPTR
        MOV     A,R3
        MOVX    @DPTR,A
//  709 
//  710   return ( ZSuccess );
        MOV     R1,#0x0
        LJMP    ?Subroutine0 & 0xFFFF
          CFI EndBlock cfiBlock28
//  711 }
//  712 
//  713 /*********************************************************************
//  714  * @fn          zcl_registerReadWriteCB
//  715  *
//  716  * @brief       Register the application's callback function to read/write
//  717  *              attribute data, and authorize read/write operation.
//  718  *
//  719  *              Note: The pfnReadWriteCB callback function is only required
//  720  *                    when the attribute data format is unknown to ZCL. The
//  721  *                    callback function gets called when the pointer 'dataPtr'
//  722  *                    to the attribute value is NULL in the attribute database
//  723  *                    registered with the ZCL.
//  724  *
//  725  *              Note: The pfnAuthorizeCB callback function is only required
//  726  *                    when the Read/Write operation on an attribute requires
//  727  *                    authorization (i.e., attributes with ACCESS_CONTROL_AUTH_READ
//  728  *                    or ACCESS_CONTROL_AUTH_WRITE access permissions).
//  729  *
//  730  * @param       endpoint - application's endpoint
//  731  * @param       pfnReadWriteCB - function pointer to read/write routine
//  732  * @param       pfnAuthorizeCB - function pointer to authorize read/write operation
//  733  *
//  734  * @return      ZSuccess if successful. ZFailure, otherwise.
//  735  */

        RSEG BANKED_CODE:CODE:NOROOT(0)
//  736 ZStatus_t zcl_registerReadWriteCB( uint8 endpoint, zclReadWriteCB_t pfnReadWriteCB,
zcl_registerReadWriteCB:
          CFI Block cfiBlock29 Using cfiCommon0
          CFI Function zcl_registerReadWriteCB
        CODE
//  737                                    zclAuthorizeCB_t pfnAuthorizeCB )
//  738 {
        FUNCALL zcl_registerReadWriteCB, zclFindAttrRecsList
        LOCFRAME ISTACK, 0, STACK
        LOCFRAME PSTACK, 0, STACK
        LOCFRAME XSTACK, 14, STACK
        LOCFRAME IOVERLAY, 0, STATIC
        LOCFRAME DOVERLAY, 0, STATIC
        ARGFRAME ISTACK, 0, STACK
        ARGFRAME PSTACK, 0, STACK
        ARGFRAME XSTACK, 14, STACK
        ARGFRAME IOVERLAY, 0, STATIC
        ARGFRAME DOVERLAY, 0, STATIC
        REQUIRE ?V0
        REQUIRE ?V1
        REQUIRE ?V2
        REQUIRE ?V4
        REQUIRE ?V5
        MOV     A,#-0xe
        LCALL   ?BANKED_ENTER_XDATA
          CFI DPH0 load(1, XDATA, add(CFA_XSP16, literal(-1)))
          CFI DPL0 load(1, XDATA, add(CFA_XSP16, literal(-2)))
          CFI ?BRET_EXT load(1, XDATA, add(CFA_XSP16, literal(-3)))
          CFI ?RET_HIGH load(1, XDATA, add(CFA_XSP16, literal(-4)))
          CFI ?RET_LOW load(1, XDATA, add(CFA_XSP16, literal(-5)))
          CFI R7 load(1, XDATA, add(CFA_XSP16, literal(-6)))
          CFI V5 load(1, XDATA, add(CFA_XSP16, literal(-7)))
          CFI V4 load(1, XDATA, add(CFA_XSP16, literal(-8)))
          CFI V3 load(1, XDATA, add(CFA_XSP16, literal(-9)))
          CFI V2 load(1, XDATA, add(CFA_XSP16, literal(-10)))
          CFI V1 load(1, XDATA, add(CFA_XSP16, literal(-11)))
          CFI V0 load(1, XDATA, add(CFA_XSP16, literal(-12)))
          CFI VB load(1, XDATA, add(CFA_XSP16, literal(-13)))
          CFI R6 load(1, XDATA, add(CFA_XSP16, literal(-14)))
          CFI CFA_SP SP+0
          CFI CFA_XSP16 add(XSP16, 14)
        ; Saved register size: 14
        ; Auto size: 0
        MOV     A,R2
        MOV     R6,A
        MOV     A,R3
        MOV     R7,A
        MOV     ?V0,R4
        MOV     ?V1,R5
//  739   zclAttrRecsList *pRec = zclFindAttrRecsList( endpoint );
        ; Setup parameters for call to function zclFindAttrRecsList
        LCALL   ??zclFindAttrRecsList?relay; Banked call to: zclFindAttrRecsList
        MOV     ?V4,R2
        MOV     ?V5,R3
        MOV     R0,?V4
        MOV     R1,?V5
//  740 
//  741   if ( pRec != NULL )
        MOV     A,R0
        ORL     A,R1
        JZ      ??zcl_registerReadWriteCB_0
//  742   {
//  743     pRec->pfnReadWriteCB = pfnReadWriteCB;
        MOV     DPL,R0
        MOV     DPH,R1
        INC     DPTR
        INC     DPTR
        INC     DPTR
        MOV     A,R6
        MOVX    @DPTR,A
        INC     DPTR
        MOV     A,R7
        LCALL   ?Subroutine42 & 0xFFFF
//  744     pRec->pfnAuthorizeCB = pfnAuthorizeCB;
??CrossCallReturnLabel_46:
        INC     DPTR
        INC     DPTR
        INC     DPTR
        INC     DPTR
        MOV     A,?V0
        MOVX    @DPTR,A
        INC     DPTR
        MOV     A,?V1
        MOVX    @DPTR,A
//  745 
//  746     return ( ZSuccess );
        MOV     R1,#0x0
        SJMP    ??zcl_registerReadWriteCB_1
//  747   }
//  748 
//  749   return ( ZFailure );
??zcl_registerReadWriteCB_0:
        MOV     R1,#0x1
??zcl_registerReadWriteCB_1:
        LJMP    ?Subroutine3 & 0xFFFF
          CFI EndBlock cfiBlock29
//  750 }

        RSEG BANKED_CODE:CODE:NOROOT(0)
?Subroutine42:
          CFI Block cfiCond30 Using cfiCommon0
          CFI Function zcl_registerPlugin
          CFI Conditional ??CrossCallReturnLabel_45
          CFI R6 load(1, XDATA, add(CFA_XSP16, literal(-12)))
          CFI VB load(1, XDATA, add(CFA_XSP16, literal(-11)))
          CFI V0 load(1, XDATA, add(CFA_XSP16, literal(-10)))
          CFI V1 load(1, XDATA, add(CFA_XSP16, literal(-9)))
          CFI V2 load(1, XDATA, add(CFA_XSP16, literal(-8)))
          CFI V3 load(1, XDATA, add(CFA_XSP16, literal(-7)))
          CFI R7 load(1, XDATA, add(CFA_XSP16, literal(-6)))
          CFI ?RET_LOW load(1, XDATA, add(CFA_XSP16, literal(-5)))
          CFI ?RET_HIGH load(1, XDATA, add(CFA_XSP16, literal(-4)))
          CFI ?BRET_EXT load(1, XDATA, add(CFA_XSP16, literal(-3)))
          CFI DPL0 load(1, XDATA, add(CFA_XSP16, literal(-2)))
          CFI DPH0 load(1, XDATA, add(CFA_XSP16, literal(-1)))
          CFI CFA_SP SP+-2
          CFI CFA_XSP16 add(XSP16, 12)
          CFI Block cfiCond31 Using cfiCommon0
          CFI (cfiCond31) Function zcl_registerReadWriteCB
          CFI (cfiCond31) Conditional ??CrossCallReturnLabel_46
          CFI (cfiCond31) R6 load(1, XDATA, add(CFA_XSP16, literal(-14)))
          CFI (cfiCond31) VB load(1, XDATA, add(CFA_XSP16, literal(-13)))
          CFI (cfiCond31) V0 load(1, XDATA, add(CFA_XSP16, literal(-12)))
          CFI (cfiCond31) V1 load(1, XDATA, add(CFA_XSP16, literal(-11)))
          CFI (cfiCond31) V2 load(1, XDATA, add(CFA_XSP16, literal(-10)))
          CFI (cfiCond31) V3 load(1, XDATA, add(CFA_XSP16, literal(-9)))
          CFI (cfiCond31) V4 load(1, XDATA, add(CFA_XSP16, literal(-8)))
          CFI (cfiCond31) V5 load(1, XDATA, add(CFA_XSP16, literal(-7)))
          CFI (cfiCond31) R7 load(1, XDATA, add(CFA_XSP16, literal(-6)))
          CFI (cfiCond31) ?RET_LOW load(1, XDATA, add(CFA_XSP16, literal(-5)))
          CFI (cfiCond31) ?RET_HIGH load(1, XDATA, add(CFA_XSP16, literal(-4)))
          CFI (cfiCond31) ?BRET_EXT load(1, XDATA, add(CFA_XSP16, literal(-3)))
          CFI (cfiCond31) DPL0 load(1, XDATA, add(CFA_XSP16, literal(-2)))
          CFI (cfiCond31) DPH0 load(1, XDATA, add(CFA_XSP16, literal(-1)))
          CFI (cfiCond31) CFA_SP SP+-2
          CFI (cfiCond31) CFA_XSP16 add(XSP16, 14)
          CFI Block cfiCond32 Using cfiCommon0
          CFI (cfiCond32) Function zcl_SendDefaultRspCmd
          CFI (cfiCond32) Conditional ??CrossCallReturnLabel_47
          CFI (cfiCond32) R6 load(1, XDATA, add(CFA_XSP16, literal(-10)))
          CFI (cfiCond32) VB load(1, XDATA, add(CFA_XSP16, literal(-9)))
          CFI (cfiCond32) V0 load(1, XDATA, add(CFA_XSP16, literal(-8)))
          CFI (cfiCond32) V1 load(1, XDATA, add(CFA_XSP16, literal(-7)))
          CFI (cfiCond32) R7 load(1, XDATA, add(CFA_XSP16, literal(-6)))
          CFI (cfiCond32) ?RET_LOW load(1, XDATA, add(CFA_XSP16, literal(-5)))
          CFI (cfiCond32) ?RET_HIGH load(1, XDATA, add(CFA_XSP16, literal(-4)))
          CFI (cfiCond32) ?BRET_EXT load(1, XDATA, add(CFA_XSP16, literal(-3)))
          CFI (cfiCond32) DPL0 load(1, XDATA, add(CFA_XSP16, literal(-2)))
          CFI (cfiCond32) DPH0 load(1, XDATA, add(CFA_XSP16, literal(-1)))
          CFI (cfiCond32) CFA_SP SP+-2
          CFI (cfiCond32) CFA_XSP16 add(XSP16, 12)
          CFI Block cfiPicker33 Using cfiCommon1
          CFI (cfiPicker33) NoFunction
          CFI (cfiPicker33) Picker
        LCALL   ?Subroutine130 & 0xFFFF
??CrossCallReturnLabel_225:
        RET
          CFI EndBlock cfiCond30
          CFI EndBlock cfiCond31
          CFI EndBlock cfiCond32
          CFI EndBlock cfiPicker33

        RSEG BANKED_CODE:CODE:NOROOT(0)
?Subroutine130:
          CFI Block cfiCond34 Using cfiCommon0
          CFI Function zcl_registerAttrList
          CFI Conditional ??CrossCallReturnLabel_223, ??CrossCallReturnLabel_12
          CFI R6 load(1, XDATA, add(CFA_XSP16, literal(-12)))
          CFI VB load(1, XDATA, add(CFA_XSP16, literal(-11)))
          CFI V0 load(1, XDATA, add(CFA_XSP16, literal(-10)))
          CFI V1 load(1, XDATA, add(CFA_XSP16, literal(-9)))
          CFI V2 load(1, XDATA, add(CFA_XSP16, literal(-8)))
          CFI V3 load(1, XDATA, add(CFA_XSP16, literal(-7)))
          CFI R7 load(1, XDATA, add(CFA_XSP16, literal(-6)))
          CFI ?RET_LOW load(1, XDATA, add(CFA_XSP16, literal(-5)))
          CFI ?RET_HIGH load(1, XDATA, add(CFA_XSP16, literal(-4)))
          CFI ?BRET_EXT load(1, XDATA, add(CFA_XSP16, literal(-3)))
          CFI DPL0 load(1, XDATA, add(CFA_XSP16, literal(-2)))
          CFI DPH0 load(1, XDATA, add(CFA_XSP16, literal(-1)))
          CFI CFA_SP SP+-4
          CFI CFA_XSP16 add(XSP16, 12)
          CFI Block cfiCond35 Using cfiCommon0
          CFI (cfiCond35) Function zcl_registerClusterOptionList
          CFI (cfiCond35) Conditional ??CrossCallReturnLabel_223, ??CrossCallReturnLabel_13
          CFI (cfiCond35) R6 load(1, XDATA, add(CFA_XSP16, literal(-12)))
          CFI (cfiCond35) VB load(1, XDATA, add(CFA_XSP16, literal(-11)))
          CFI (cfiCond35) V0 load(1, XDATA, add(CFA_XSP16, literal(-10)))
          CFI (cfiCond35) V1 load(1, XDATA, add(CFA_XSP16, literal(-9)))
          CFI (cfiCond35) V2 load(1, XDATA, add(CFA_XSP16, literal(-8)))
          CFI (cfiCond35) V3 load(1, XDATA, add(CFA_XSP16, literal(-7)))
          CFI (cfiCond35) R7 load(1, XDATA, add(CFA_XSP16, literal(-6)))
          CFI (cfiCond35) ?RET_LOW load(1, XDATA, add(CFA_XSP16, literal(-5)))
          CFI (cfiCond35) ?RET_HIGH load(1, XDATA, add(CFA_XSP16, literal(-4)))
          CFI (cfiCond35) ?BRET_EXT load(1, XDATA, add(CFA_XSP16, literal(-3)))
          CFI (cfiCond35) DPL0 load(1, XDATA, add(CFA_XSP16, literal(-2)))
          CFI (cfiCond35) DPH0 load(1, XDATA, add(CFA_XSP16, literal(-1)))
          CFI (cfiCond35) CFA_SP SP+-4
          CFI (cfiCond35) CFA_XSP16 add(XSP16, 12)
          CFI Block cfiCond36 Using cfiCommon0
          CFI (cfiCond36) Function zcl_registerAttrList
          CFI (cfiCond36) Conditional ??CrossCallReturnLabel_224, ??CrossCallReturnLabel_12
          CFI (cfiCond36) R6 load(1, XDATA, add(CFA_XSP16, literal(-12)))
          CFI (cfiCond36) VB load(1, XDATA, add(CFA_XSP16, literal(-11)))
          CFI (cfiCond36) V0 load(1, XDATA, add(CFA_XSP16, literal(-10)))
          CFI (cfiCond36) V1 load(1, XDATA, add(CFA_XSP16, literal(-9)))
          CFI (cfiCond36) V2 load(1, XDATA, add(CFA_XSP16, literal(-8)))
          CFI (cfiCond36) V3 load(1, XDATA, add(CFA_XSP16, literal(-7)))
          CFI (cfiCond36) R7 load(1, XDATA, add(CFA_XSP16, literal(-6)))
          CFI (cfiCond36) ?RET_LOW load(1, XDATA, add(CFA_XSP16, literal(-5)))
          CFI (cfiCond36) ?RET_HIGH load(1, XDATA, add(CFA_XSP16, literal(-4)))
          CFI (cfiCond36) ?BRET_EXT load(1, XDATA, add(CFA_XSP16, literal(-3)))
          CFI (cfiCond36) DPL0 load(1, XDATA, add(CFA_XSP16, literal(-2)))
          CFI (cfiCond36) DPH0 load(1, XDATA, add(CFA_XSP16, literal(-1)))
          CFI (cfiCond36) CFA_SP SP+-4
          CFI (cfiCond36) CFA_XSP16 add(XSP16, 12)
          CFI Block cfiCond37 Using cfiCommon0
          CFI (cfiCond37) Function zcl_registerClusterOptionList
          CFI (cfiCond37) Conditional ??CrossCallReturnLabel_224, ??CrossCallReturnLabel_13
          CFI (cfiCond37) R6 load(1, XDATA, add(CFA_XSP16, literal(-12)))
          CFI (cfiCond37) VB load(1, XDATA, add(CFA_XSP16, literal(-11)))
          CFI (cfiCond37) V0 load(1, XDATA, add(CFA_XSP16, literal(-10)))
          CFI (cfiCond37) V1 load(1, XDATA, add(CFA_XSP16, literal(-9)))
          CFI (cfiCond37) V2 load(1, XDATA, add(CFA_XSP16, literal(-8)))
          CFI (cfiCond37) V3 load(1, XDATA, add(CFA_XSP16, literal(-7)))
          CFI (cfiCond37) R7 load(1, XDATA, add(CFA_XSP16, literal(-6)))
          CFI (cfiCond37) ?RET_LOW load(1, XDATA, add(CFA_XSP16, literal(-5)))
          CFI (cfiCond37) ?RET_HIGH load(1, XDATA, add(CFA_XSP16, literal(-4)))
          CFI (cfiCond37) ?BRET_EXT load(1, XDATA, add(CFA_XSP16, literal(-3)))
          CFI (cfiCond37) DPL0 load(1, XDATA, add(CFA_XSP16, literal(-2)))
          CFI (cfiCond37) DPH0 load(1, XDATA, add(CFA_XSP16, literal(-1)))
          CFI (cfiCond37) CFA_SP SP+-4
          CFI (cfiCond37) CFA_XSP16 add(XSP16, 12)
          CFI Block cfiCond38 Using cfiCommon0
          CFI (cfiCond38) Function zcl_registerPlugin
          CFI (cfiCond38) Conditional ??CrossCallReturnLabel_225, ??CrossCallReturnLabel_45
          CFI (cfiCond38) R6 load(1, XDATA, add(CFA_XSP16, literal(-12)))
          CFI (cfiCond38) VB load(1, XDATA, add(CFA_XSP16, literal(-11)))
          CFI (cfiCond38) V0 load(1, XDATA, add(CFA_XSP16, literal(-10)))
          CFI (cfiCond38) V1 load(1, XDATA, add(CFA_XSP16, literal(-9)))
          CFI (cfiCond38) V2 load(1, XDATA, add(CFA_XSP16, literal(-8)))
          CFI (cfiCond38) V3 load(1, XDATA, add(CFA_XSP16, literal(-7)))
          CFI (cfiCond38) R7 load(1, XDATA, add(CFA_XSP16, literal(-6)))
          CFI (cfiCond38) ?RET_LOW load(1, XDATA, add(CFA_XSP16, literal(-5)))
          CFI (cfiCond38) ?RET_HIGH load(1, XDATA, add(CFA_XSP16, literal(-4)))
          CFI (cfiCond38) ?BRET_EXT load(1, XDATA, add(CFA_XSP16, literal(-3)))
          CFI (cfiCond38) DPL0 load(1, XDATA, add(CFA_XSP16, literal(-2)))
          CFI (cfiCond38) DPH0 load(1, XDATA, add(CFA_XSP16, literal(-1)))
          CFI (cfiCond38) CFA_SP SP+-4
          CFI (cfiCond38) CFA_XSP16 add(XSP16, 12)
          CFI Block cfiCond39 Using cfiCommon0
          CFI (cfiCond39) Function zcl_registerReadWriteCB
          CFI (cfiCond39) Conditional ??CrossCallReturnLabel_225, ??CrossCallReturnLabel_46
          CFI (cfiCond39) R6 load(1, XDATA, add(CFA_XSP16, literal(-14)))
          CFI (cfiCond39) VB load(1, XDATA, add(CFA_XSP16, literal(-13)))
          CFI (cfiCond39) V0 load(1, XDATA, add(CFA_XSP16, literal(-12)))
          CFI (cfiCond39) V1 load(1, XDATA, add(CFA_XSP16, literal(-11)))
          CFI (cfiCond39) V2 load(1, XDATA, add(CFA_XSP16, literal(-10)))
          CFI (cfiCond39) V3 load(1, XDATA, add(CFA_XSP16, literal(-9)))
          CFI (cfiCond39) V4 load(1, XDATA, add(CFA_XSP16, literal(-8)))
          CFI (cfiCond39) V5 load(1, XDATA, add(CFA_XSP16, literal(-7)))
          CFI (cfiCond39) R7 load(1, XDATA, add(CFA_XSP16, literal(-6)))
          CFI (cfiCond39) ?RET_LOW load(1, XDATA, add(CFA_XSP16, literal(-5)))
          CFI (cfiCond39) ?RET_HIGH load(1, XDATA, add(CFA_XSP16, literal(-4)))
          CFI (cfiCond39) ?BRET_EXT load(1, XDATA, add(CFA_XSP16, literal(-3)))
          CFI (cfiCond39) DPL0 load(1, XDATA, add(CFA_XSP16, literal(-2)))
          CFI (cfiCond39) DPH0 load(1, XDATA, add(CFA_XSP16, literal(-1)))
          CFI (cfiCond39) CFA_SP SP+-4
          CFI (cfiCond39) CFA_XSP16 add(XSP16, 14)
          CFI Block cfiCond40 Using cfiCommon0
          CFI (cfiCond40) Function zcl_SendDefaultRspCmd
          CFI (cfiCond40) Conditional ??CrossCallReturnLabel_225, ??CrossCallReturnLabel_47
          CFI (cfiCond40) R6 load(1, XDATA, add(CFA_XSP16, literal(-10)))
          CFI (cfiCond40) VB load(1, XDATA, add(CFA_XSP16, literal(-9)))
          CFI (cfiCond40) V0 load(1, XDATA, add(CFA_XSP16, literal(-8)))
          CFI (cfiCond40) V1 load(1, XDATA, add(CFA_XSP16, literal(-7)))
          CFI (cfiCond40) R7 load(1, XDATA, add(CFA_XSP16, literal(-6)))
          CFI (cfiCond40) ?RET_LOW load(1, XDATA, add(CFA_XSP16, literal(-5)))
          CFI (cfiCond40) ?RET_HIGH load(1, XDATA, add(CFA_XSP16, literal(-4)))
          CFI (cfiCond40) ?BRET_EXT load(1, XDATA, add(CFA_XSP16, literal(-3)))
          CFI (cfiCond40) DPL0 load(1, XDATA, add(CFA_XSP16, literal(-2)))
          CFI (cfiCond40) DPH0 load(1, XDATA, add(CFA_XSP16, literal(-1)))
          CFI (cfiCond40) CFA_SP SP+-4
          CFI (cfiCond40) CFA_XSP16 add(XSP16, 12)
          CFI Block cfiPicker41 Using cfiCommon1
          CFI (cfiPicker41) NoFunction
          CFI (cfiPicker41) Picker
        MOVX    @DPTR,A
        MOV     DPL,R0
        MOV     DPH,R1
        INC     DPTR
        RET
          CFI EndBlock cfiCond34
          CFI EndBlock cfiCond35
          CFI EndBlock cfiCond36
          CFI EndBlock cfiCond37
          CFI EndBlock cfiCond38
          CFI EndBlock cfiCond39
          CFI EndBlock cfiCond40
          CFI EndBlock cfiPicker41
//  751 
//  752 /*********************************************************************
//  753  * @fn      zcl_DeviceOperational
//  754  *
//  755  * @brief   Used to see whether or not the device can send or respond
//  756  *          to application level commands.
//  757  *
//  758  * @param   srcEP - source endpoint
//  759  * @param   clusterID - cluster ID
//  760  * @param   frameType - command type
//  761  * @param   cmd - command ID
//  762  *
//  763  * @return  TRUE if device is operational, FALSE otherwise
//  764  */

        RSEG BANKED_CODE:CODE:NOROOT(0)
//  765 static uint8 zcl_DeviceOperational( uint8 srcEP, uint16 clusterID,
zcl_DeviceOperational:
          CFI Block cfiBlock42 Using cfiCommon0
          CFI Function zcl_DeviceOperational
        CODE
//  766                                     uint8 frameType, uint8 cmd, uint16 profileID )
//  767 {
        FUNCALL zcl_DeviceOperational, zclFindAttrRec
        LOCFRAME ISTACK, 0, STACK
        LOCFRAME PSTACK, 0, STACK
        LOCFRAME XSTACK, 25, STACK
        LOCFRAME IOVERLAY, 0, STATIC
        LOCFRAME DOVERLAY, 0, STATIC
        ARGFRAME ISTACK, 0, STACK
        ARGFRAME PSTACK, 0, STACK
        ARGFRAME XSTACK, 25, STACK
        ARGFRAME IOVERLAY, 0, STATIC
        ARGFRAME DOVERLAY, 0, STATIC
        FUNCALL zcl_DeviceOperational, zclReadAttrData
        LOCFRAME ISTACK, 0, STACK
        LOCFRAME PSTACK, 0, STACK
        LOCFRAME XSTACK, 25, STACK
        LOCFRAME IOVERLAY, 0, STATIC
        LOCFRAME DOVERLAY, 0, STATIC
        ARGFRAME ISTACK, 0, STACK
        ARGFRAME PSTACK, 0, STACK
        ARGFRAME XSTACK, 25, STACK
        ARGFRAME IOVERLAY, 0, STATIC
        ARGFRAME DOVERLAY, 0, STATIC
        REQUIRE ?V0
        REQUIRE ?V2
        REQUIRE ?V3
        MOV     A,#-0xc
        LCALL   ?BANKED_ENTER_XDATA
          CFI DPH0 load(1, XDATA, add(CFA_XSP16, literal(-1)))
          CFI DPL0 load(1, XDATA, add(CFA_XSP16, literal(-2)))
          CFI ?BRET_EXT load(1, XDATA, add(CFA_XSP16, literal(-3)))
          CFI ?RET_HIGH load(1, XDATA, add(CFA_XSP16, literal(-4)))
          CFI ?RET_LOW load(1, XDATA, add(CFA_XSP16, literal(-5)))
          CFI R7 load(1, XDATA, add(CFA_XSP16, literal(-6)))
          CFI V3 load(1, XDATA, add(CFA_XSP16, literal(-7)))
          CFI V2 load(1, XDATA, add(CFA_XSP16, literal(-8)))
          CFI V1 load(1, XDATA, add(CFA_XSP16, literal(-9)))
          CFI V0 load(1, XDATA, add(CFA_XSP16, literal(-10)))
          CFI VB load(1, XDATA, add(CFA_XSP16, literal(-11)))
          CFI R6 load(1, XDATA, add(CFA_XSP16, literal(-12)))
          CFI CFA_SP SP+0
          CFI CFA_XSP16 add(XSP16, 12)
        ; Saved register size: 12
        ; Auto size: 11
        MOV     A,#-0xb
        LCALL   ?ALLOC_XSTACK8
          CFI CFA_XSP16 add(XSP16, 23)
        MOV     A,R1
        MOV     R6,A
        MOV     A,R4
        MOV     R7,A
//  768   zclAttrRec_t attrRec;
//  769   uint8 deviceEnabled = DEVICE_ENABLED; // default value
        MOV     DPL,?XSP + 0
        MOV     DPH,?XSP + 1
        MOV     A,#0x1
        MOVX    @DPTR,A
//  770 
//  771   (void)profileID;  // Intentionally unreferenced parameter
//  772 
//  773   // If the device is Disabled (DeviceEnabled attribute is set to Disabled), it
//  774   // cannot send or respond to application level commands, other than commands
//  775   // to read or write attributes. Note that the Identify cluster cannot be
//  776   // disabled, and remains functional regardless of this setting.
//  777   if ( zcl_ProfileCmd( frameType ) && cmd <= ZCL_CMD_WRITE_NO_RSP )
        MOV     A,R7
        JNZ     ??zcl_DeviceOperational_0
        MOV     A,R5
        CLR     C
        SUBB    A,#0x6
        JC      ??zcl_DeviceOperational_1
//  778   {
//  779     return ( TRUE );
//  780   }
//  781 
//  782   if ( clusterID == ZCL_CLUSTER_ID_GEN_IDENTIFY )
??zcl_DeviceOperational_0:
        MOV     A,#0x3
        XRL     A,R2
        ORL     A,R3
        JZ      ??zcl_DeviceOperational_1
//  783   {
//  784     return ( TRUE );
//  785   }
//  786 
//  787   // Is device enabled?
//  788   if ( zclFindAttrRec( srcEP, ZCL_CLUSTER_ID_GEN_BASIC,
//  789                        ATTRID_BASIC_DEVICE_ENABLED, &attrRec ) )
        ; Setup parameters for call to function zclFindAttrRec
        MOV     A,#0x1
        LCALL   ?XSTACK_DISP100_8
        MOV     ?V2,R0
        MOV     ?V3,R1
        MOV     R0,#?V2
        LCALL   ?PUSH_XSTACK_I_TWO
          CFI CFA_XSP16 add(XSP16, 25)
        MOV     R4,#0x12
        MOV     R5,#0x0
        MOV     R2,#0x0
        MOV     R3,#0x0
        MOV     A,R6
        MOV     R1,A
        LCALL   ??zclFindAttrRec?relay; Banked call to: zclFindAttrRec
        MOV     A,#0x2
        LCALL   ?DEALLOC_XSTACK8
          CFI CFA_XSP16 add(XSP16, 23)
        MOV     A,R1
        JZ      ??zcl_DeviceOperational_2
//  790   {
//  791 #ifdef ZCL_READ
//  792     zclReadAttrData( &deviceEnabled, &attrRec, NULL );
        ; Setup parameters for call to function zclReadAttrData
        CLR     A
        MOV     ?V2,A
        MOV     ?V3,A
        MOV     R0,#?V2
        LCALL   ?PUSH_XSTACK_I_TWO
          CFI CFA_XSP16 add(XSP16, 25)
        MOV     A,#0x3
        LCALL   ?XSTACK_DISP102_8
        MOV     A,#0x2
        LCALL   ?XSTACK_DISP101_8
        LCALL   ??zclReadAttrData?relay; Banked call to: zclReadAttrData
        MOV     A,#0x2
        LCALL   ?DEALLOC_XSTACK8
          CFI CFA_XSP16 add(XSP16, 23)
//  793 #endif
//  794   }
//  795 
//  796   return ( deviceEnabled == DEVICE_ENABLED ? TRUE : FALSE );
??zcl_DeviceOperational_2:
        MOV     DPL,?XSP + 0
        MOV     DPH,?XSP + 1
        MOVX    A,@DPTR
        XRL     A,#0x1
        JNZ     ??zcl_DeviceOperational_3
??zcl_DeviceOperational_1:
        MOV     R1,#0x1
        SJMP    ??zcl_DeviceOperational_4
??zcl_DeviceOperational_3:
        MOV     R1,#0x0
??zcl_DeviceOperational_4:
        MOV     A,#0xb
        LCALL   ?DEALLOC_XSTACK8
          CFI EndBlock cfiBlock42
        REQUIRE ?Subroutine1
        ; // Fall through to label ?Subroutine1
//  797 }

        RSEG BANKED_CODE:CODE:NOROOT(0)
?Subroutine1:
          CFI Block cfiBlock43 Using cfiCommon0
          CFI NoFunction
          CFI CFA_SP SP+0
          CFI CFA_XSP16 add(XSP16, 12)
          CFI VB load(1, XDATA, add(CFA_XSP16, literal(-11)))
          CFI DPL0 load(1, XDATA, add(CFA_XSP16, literal(-2)))
          CFI DPH0 load(1, XDATA, add(CFA_XSP16, literal(-1)))
          CFI R6 load(1, XDATA, add(CFA_XSP16, literal(-12)))
          CFI R7 load(1, XDATA, add(CFA_XSP16, literal(-6)))
          CFI V0 load(1, XDATA, add(CFA_XSP16, literal(-10)))
          CFI V1 load(1, XDATA, add(CFA_XSP16, literal(-9)))
          CFI V2 load(1, XDATA, add(CFA_XSP16, literal(-8)))
          CFI V3 load(1, XDATA, add(CFA_XSP16, literal(-7)))
          CFI ?BRET_EXT load(1, XDATA, add(CFA_XSP16, literal(-3)))
          CFI ?RET_HIGH load(1, XDATA, add(CFA_XSP16, literal(-4)))
          CFI ?RET_LOW load(1, XDATA, add(CFA_XSP16, literal(-5)))
        MOV     R7,#0x4
        LJMP    ?BANKED_LEAVE_XDATA
          CFI EndBlock cfiBlock43
//  798 
//  799 /*********************************************************************
//  800  * @fn      zcl_SendCommand
//  801  *
//  802  * @brief   Used to send Profile and Cluster Specific Command messages.
//  803  *
//  804  *          NOTE: The calling application is responsible for incrementing
//  805  *                the Sequence Number.
//  806  *
//  807  * @param   srcEp - source endpoint
//  808  * @param   destAddr - destination address
//  809  * @param   clusterID - cluster ID
//  810  * @param   cmd - command ID
//  811  * @param   specific - whether the command is Cluster Specific
//  812  * @param   direction - client/server direction of the command
//  813  * @param   disableDefaultRsp - disable Default Response command
//  814  * @param   manuCode - manufacturer code for proprietary extensions to a profile
//  815  * @param   seqNumber - identification number for the transaction
//  816  * @param   cmdFormatLen - length of the command to be sent
//  817  * @param   cmdFormat - command to be sent
//  818  *
//  819  * @return  ZSuccess if OK
//  820  */

        RSEG BANKED_CODE:CODE:NOROOT(0)
//  821 ZStatus_t zcl_SendCommand( uint8 srcEP, afAddrType_t *destAddr,
zcl_SendCommand:
          CFI Block cfiBlock44 Using cfiCommon0
          CFI Function zcl_SendCommand
        CODE
//  822                            uint16 clusterID, uint8 cmd, uint8 specific, uint8 direction,
//  823                            uint8 disableDefaultRsp, uint16 manuCode, uint8 seqNum,
//  824                            uint16 cmdFormatLen, uint8 *cmdFormat )
//  825 {
        FUNCALL zcl_SendCommand, afFindEndPointDesc
        LOCFRAME ISTACK, 0, STACK
        LOCFRAME PSTACK, 0, STACK
        LOCFRAME XSTACK, 30, STACK
        LOCFRAME IOVERLAY, 0, STATIC
        LOCFRAME DOVERLAY, 0, STATIC
        ARGFRAME ISTACK, 0, STACK
        ARGFRAME PSTACK, 0, STACK
        ARGFRAME XSTACK, 30, STACK
        ARGFRAME IOVERLAY, 0, STATIC
        ARGFRAME DOVERLAY, 0, STATIC
        FUNCALL zcl_SendCommand, zclGetClusterOption
        LOCFRAME ISTACK, 0, STACK
        LOCFRAME PSTACK, 0, STACK
        LOCFRAME XSTACK, 30, STACK
        LOCFRAME IOVERLAY, 0, STATIC
        LOCFRAME DOVERLAY, 0, STATIC
        ARGFRAME ISTACK, 0, STACK
        ARGFRAME PSTACK, 0, STACK
        ARGFRAME XSTACK, 30, STACK
        ARGFRAME IOVERLAY, 0, STATIC
        ARGFRAME DOVERLAY, 0, STATIC
        FUNCALL zcl_SendCommand, osal_memset
        LOCFRAME ISTACK, 0, STACK
        LOCFRAME PSTACK, 0, STACK
        LOCFRAME XSTACK, 30, STACK
        LOCFRAME IOVERLAY, 0, STATIC
        LOCFRAME DOVERLAY, 0, STATIC
        ARGFRAME ISTACK, 0, STACK
        ARGFRAME PSTACK, 0, STACK
        ARGFRAME XSTACK, 30, STACK
        ARGFRAME IOVERLAY, 0, STATIC
        ARGFRAME DOVERLAY, 0, STATIC
        FUNCALL zcl_SendCommand, zcl_DeviceOperational
        LOCFRAME ISTACK, 0, STACK
        LOCFRAME PSTACK, 0, STACK
        LOCFRAME XSTACK, 32, STACK
        LOCFRAME IOVERLAY, 0, STATIC
        LOCFRAME DOVERLAY, 0, STATIC
        ARGFRAME ISTACK, 0, STACK
        ARGFRAME PSTACK, 0, STACK
        ARGFRAME XSTACK, 32, STACK
        ARGFRAME IOVERLAY, 0, STATIC
        ARGFRAME DOVERLAY, 0, STATIC
        FUNCALL zcl_SendCommand, osal_mem_alloc
        LOCFRAME ISTACK, 0, STACK
        LOCFRAME PSTACK, 0, STACK
        LOCFRAME XSTACK, 30, STACK
        LOCFRAME IOVERLAY, 0, STATIC
        LOCFRAME DOVERLAY, 0, STATIC
        ARGFRAME ISTACK, 0, STACK
        ARGFRAME PSTACK, 0, STACK
        ARGFRAME XSTACK, 30, STACK
        ARGFRAME IOVERLAY, 0, STATIC
        ARGFRAME DOVERLAY, 0, STATIC
        FUNCALL zcl_SendCommand, zclBuildHdr
        LOCFRAME ISTACK, 0, STACK
        LOCFRAME PSTACK, 0, STACK
        LOCFRAME XSTACK, 33, STACK
        LOCFRAME IOVERLAY, 0, STATIC
        LOCFRAME DOVERLAY, 0, STATIC
        ARGFRAME ISTACK, 0, STACK
        ARGFRAME PSTACK, 0, STACK
        ARGFRAME XSTACK, 33, STACK
        ARGFRAME IOVERLAY, 0, STATIC
        ARGFRAME DOVERLAY, 0, STATIC
        FUNCALL zcl_SendCommand, osal_memcpy
        LOCFRAME ISTACK, 0, STACK
        LOCFRAME PSTACK, 0, STACK
        LOCFRAME XSTACK, 33, STACK
        LOCFRAME IOVERLAY, 0, STATIC
        LOCFRAME DOVERLAY, 0, STATIC
        ARGFRAME ISTACK, 0, STACK
        ARGFRAME PSTACK, 0, STACK
        ARGFRAME XSTACK, 33, STACK
        ARGFRAME IOVERLAY, 0, STATIC
        ARGFRAME DOVERLAY, 0, STATIC
        FUNCALL zcl_SendCommand, AF_DataRequest
        LOCFRAME ISTACK, 0, STACK
        LOCFRAME PSTACK, 0, STACK
        LOCFRAME XSTACK, 39, STACK
        LOCFRAME IOVERLAY, 0, STATIC
        LOCFRAME DOVERLAY, 0, STATIC
        ARGFRAME ISTACK, 0, STACK
        ARGFRAME PSTACK, 0, STACK
        ARGFRAME XSTACK, 39, STACK
        ARGFRAME IOVERLAY, 0, STATIC
        ARGFRAME DOVERLAY, 0, STATIC
        FUNCALL zcl_SendCommand, osal_mem_free
        LOCFRAME ISTACK, 0, STACK
        LOCFRAME PSTACK, 0, STACK
        LOCFRAME XSTACK, 30, STACK
        LOCFRAME IOVERLAY, 0, STATIC
        LOCFRAME DOVERLAY, 0, STATIC
        ARGFRAME ISTACK, 0, STACK
        ARGFRAME PSTACK, 0, STACK
        ARGFRAME XSTACK, 30, STACK
        ARGFRAME IOVERLAY, 0, STATIC
        ARGFRAME DOVERLAY, 0, STATIC
        REQUIRE ?V0
        REQUIRE ?V1
        REQUIRE ?V2
        REQUIRE ?V3
        REQUIRE ?V4
        REQUIRE ?V5
        REQUIRE ?V6
        REQUIRE ?V7
        REQUIRE ?V8
        REQUIRE ?V9
        REQUIRE ?V10
        REQUIRE ?V12
        REQUIRE ?V13
        REQUIRE ?V14
        REQUIRE ?V15
        MOV     A,#-0x18
        LCALL   ?BANKED_ENTER_XDATA
          CFI DPH0 load(1, XDATA, add(CFA_XSP16, literal(-1)))
          CFI DPL0 load(1, XDATA, add(CFA_XSP16, literal(-2)))
          CFI ?BRET_EXT load(1, XDATA, add(CFA_XSP16, literal(-3)))
          CFI ?RET_HIGH load(1, XDATA, add(CFA_XSP16, literal(-4)))
          CFI ?RET_LOW load(1, XDATA, add(CFA_XSP16, literal(-5)))
          CFI R7 load(1, XDATA, add(CFA_XSP16, literal(-6)))
          CFI V15 load(1, XDATA, add(CFA_XSP16, literal(-7)))
          CFI V14 load(1, XDATA, add(CFA_XSP16, literal(-8)))
          CFI V13 load(1, XDATA, add(CFA_XSP16, literal(-9)))
          CFI V12 load(1, XDATA, add(CFA_XSP16, literal(-10)))
          CFI V11 load(1, XDATA, add(CFA_XSP16, literal(-11)))
          CFI V10 load(1, XDATA, add(CFA_XSP16, literal(-12)))
          CFI V9 load(1, XDATA, add(CFA_XSP16, literal(-13)))
          CFI V8 load(1, XDATA, add(CFA_XSP16, literal(-14)))
          CFI V7 load(1, XDATA, add(CFA_XSP16, literal(-15)))
          CFI V6 load(1, XDATA, add(CFA_XSP16, literal(-16)))
          CFI V5 load(1, XDATA, add(CFA_XSP16, literal(-17)))
          CFI V4 load(1, XDATA, add(CFA_XSP16, literal(-18)))
          CFI V3 load(1, XDATA, add(CFA_XSP16, literal(-19)))
          CFI V2 load(1, XDATA, add(CFA_XSP16, literal(-20)))
          CFI V1 load(1, XDATA, add(CFA_XSP16, literal(-21)))
          CFI V0 load(1, XDATA, add(CFA_XSP16, literal(-22)))
          CFI VB load(1, XDATA, add(CFA_XSP16, literal(-23)))
          CFI R6 load(1, XDATA, add(CFA_XSP16, literal(-24)))
          CFI CFA_SP SP+0
          CFI CFA_XSP16 add(XSP16, 24)
        ; Saved register size: 24
        ; Auto size: 6
        MOV     A,#-0x6
        LCALL   ?ALLOC_XSTACK8
          CFI CFA_XSP16 add(XSP16, 30)
        MOV     ?V10,R1
        MOV     ?V14,R2
        MOV     ?V15,R3
        MOV     ?V2,R4
        MOV     ?V3,R5
//  826   endPointDesc_t *epDesc;
//  827   zclFrameHdr_t hdr;
//  828   uint8 *msgBuf;
//  829   uint16 msgLen;
//  830   uint8 *pBuf;
//  831   uint8 options;
//  832   ZStatus_t status;
//  833 
//  834   epDesc = afFindEndPointDesc( srcEP );
        ; Setup parameters for call to function afFindEndPointDesc
        LCALL   ??afFindEndPointDesc?relay; Banked call to: afFindEndPointDesc
        MOV     ?V12,R2
        MOV     ?V13,R3
//  835   if ( epDesc == NULL )
        MOV     A,R2
        ORL     A,?V13
        JNZ     ??zcl_SendCommand_0
//  836   {
//  837     return ( ZInvalidParameter ); // EMBEDDED RETURN
        MOV     R1,#0x2
        LJMP    ??zcl_SendCommand_1 & 0xFFFF
//  838   }
//  839 
//  840 #if defined ( INTER_PAN )
//  841   if ( StubAPS_InterPan( destAddr->panId, destAddr->endPoint ) )
//  842   {
//  843     options = AF_TX_OPTIONS_NONE;
//  844   }
//  845   else
//  846 #endif
//  847   {
//  848     options = zclGetClusterOption( srcEP, clusterID );
??zcl_SendCommand_0:
        ; Setup parameters for call to function zclGetClusterOption
        MOV     R2,?V2
        MOV     R3,?V3
        MOV     R1,?V10
        LCALL   ??zclGetClusterOption?relay; Banked call to: zclGetClusterOption
        MOV     A,R1
        MOV     ?V7,A
//  849 
//  850     // The cluster might not have been defined to use security but if this message
//  851     // is in response to another message that was using APS security this message
//  852     // will be sent with APS security
//  853     if ( !( options & AF_EN_SECURITY ) )
        MOV     C,0xE0 /* A   */.6
        JC      ??zcl_SendCommand_2
//  854     {
//  855       afIncomingMSGPacket_t *origPkt = zcl_getRawAFMsg();
        MOV     DPTR,#rawAFMsg
        LCALL   ??Subroutine180_0 & 0xFFFF
//  856 
//  857       if ( ( origPkt != NULL ) && ( origPkt->SecurityUse == TRUE ) )
??CrossCallReturnLabel_322:
        JZ      ??zcl_SendCommand_2
        MOV     A,R0
        ADD     A,#0x19
        MOV     DPL,A
        CLR     A
        ADDC    A,R1
        MOV     DPH,A
        MOVX    A,@DPTR
        XRL     A,#0x1
        JNZ     ??zcl_SendCommand_2
//  858       {
//  859         options |= AF_EN_SECURITY;
        MOV     A,?V7
        SETB    0xE0 /* A   */.6
        MOV     ?V7,A
//  860       }
//  861     }
//  862   }
//  863 
//  864   zcl_memset( &hdr, 0, sizeof( zclFrameHdr_t ) );
??zcl_SendCommand_2:
        ; Setup parameters for call to function osal_memset
        MOV     R4,#0x6
        MOV     R5,#0x0
        MOV     R1,#0x0
        MOV     R2,?XSP + 0
        MOV     R3,?XSP + 1
        LCALL   ??osal_memset?relay  ; Banked call to: osal_memset
//  865 
//  866   // Not Profile wide command (like READ, WRITE)
//  867   if ( specific )
        MOV     A,#0x1f
        LCALL   ?XSTACK_DISP0_8
        LCALL   ?Subroutine95 & 0xFFFF
??CrossCallReturnLabel_154:
        JZ      ??zcl_SendCommand_3
//  868   {
//  869     hdr.fc.type = ZCL_FRAME_TYPE_SPECIFIC_CMD;
        MOVX    A,@DPTR
        ANL     A,#0xfc
        MOV     R0,A
        INC     DPTR
        MOVX    A,@DPTR
        MOV     R1,A
        MOV     A,R0
        ORL     A,#0x1
        MOV     DPL,?XSP + 0
        MOV     DPH,?XSP + 1
        MOVX    @DPTR,A
        INC     DPTR
        MOV     A,R1
        SJMP    ??zcl_SendCommand_4
//  870   }
//  871   else
//  872   {
//  873     hdr.fc.type = ZCL_FRAME_TYPE_PROFILE_CMD;
??zcl_SendCommand_3:
        MOVX    A,@DPTR
        ANL     A,#0xfc
//  874   }
??zcl_SendCommand_4:
        LCALL   ?Subroutine38 & 0xFFFF
//  875 
//  876   if ( ( epDesc->simpleDesc == NULL ) ||
//  877        ( zcl_DeviceOperational( srcEP, clusterID, hdr.fc.type,
//  878                                 cmd, epDesc->simpleDesc->AppProfId ) == FALSE ) )
??CrossCallReturnLabel_38:
        LCALL   ??Subroutine180_0 & 0xFFFF
??CrossCallReturnLabel_325:
        JZ      ??zcl_SendCommand_5
        MOV     A,#0x1e
        LCALL   ?XSTACK_DISP0_8
        MOVX    A,@DPTR
        MOV     R6,A
        ; Setup parameters for call to function zcl_DeviceOperational
        MOV     DPL,R0
        MOV     DPH,R1
        INC     DPTR
        LCALL   ?PUSH_XSTACK8_X_TWO
          CFI CFA_XSP16 add(XSP16, 32)
        MOV     A,R6
        MOV     R5,A
        MOV     A,#0x2
        LCALL   ?XSTACK_DISP0_8
        MOVX    A,@DPTR
        ANL     A,#0x3
        MOV     R4,A
        MOV     R2,?V2
        MOV     R3,?V3
        MOV     R1,?V10
        LCALL   ??zcl_DeviceOperational?relay; Banked call to: zcl_DeviceOperational
        MOV     A,#0x2
        LCALL   ?DEALLOC_XSTACK8
          CFI CFA_XSP16 add(XSP16, 30)
        MOV     A,R1
        JNZ     ??zcl_SendCommand_6
//  879   {
//  880     return ( ZFailure ); // EMBEDDED RETURN
??zcl_SendCommand_5:
        MOV     R1,#0x1
        LJMP    ??zcl_SendCommand_1 & 0xFFFF
//  881   }
??zcl_SendCommand_6:
        MOV     A,#0x22
        LCALL   ?XSTACK_DISP0_8
        LCALL   ??Subroutine180_0 & 0xFFFF
//  882 
//  883   // Fill in the Maufacturer Code
//  884   if ( manuCode != 0 )
??CrossCallReturnLabel_323:
        JZ      ??CrossCallReturnLabel_462
//  885   {
//  886     hdr.fc.manuSpecific = 1;
        MOV     DPL,?XSP + 0
        MOV     DPH,?XSP + 1
        MOVX    A,@DPTR
        ORL     A,#0x4
        MOVX    @DPTR,A
//  887     hdr.manuCode = manuCode;
        MOV     A,#0x2
        LCALL   ?XSTACK_DISP0_8
        LCALL   ??Subroutine206_0 & 0xFFFF
//  888   }
//  889 
//  890   // Set the Command Direction
//  891   if ( direction )
??CrossCallReturnLabel_462:
        MOV     A,#0x20
        LCALL   ?XSTACK_DISP0_8
        LCALL   ?Subroutine95 & 0xFFFF
??CrossCallReturnLabel_155:
        JZ      ??zcl_SendCommand_7
//  892   {
//  893     hdr.fc.direction = ZCL_FRAME_SERVER_CLIENT_DIR;
        MOVX    A,@DPTR
        ORL     A,#0x8
        SJMP    ??zcl_SendCommand_8
//  894   }
//  895   else
//  896   {
//  897     hdr.fc.direction = ZCL_FRAME_CLIENT_SERVER_DIR;
??zcl_SendCommand_7:
        MOVX    A,@DPTR
        ANL     A,#0xf7
??zcl_SendCommand_8:
        MOVX    @DPTR,A
//  898   }
//  899 
//  900   // Set the Disable Default Response field
//  901   if ( disableDefaultRsp )
        MOV     A,#0x21
        LCALL   ?XSTACK_DISP0_8
        LCALL   ?Subroutine95 & 0xFFFF
??CrossCallReturnLabel_156:
        JZ      ??zcl_SendCommand_9
//  902   {
//  903     hdr.fc.disableDefaultRsp = 1;
        MOVX    A,@DPTR
        ORL     A,#0x10
        SJMP    ??zcl_SendCommand_10
//  904   }
//  905   else
//  906   {
//  907     hdr.fc.disableDefaultRsp = 0;
??zcl_SendCommand_9:
        MOVX    A,@DPTR
        ANL     A,#0xef
??zcl_SendCommand_10:
        MOVX    @DPTR,A
//  908   }
//  909 
//  910   // Fill in the Transaction Sequence Number
//  911   hdr.transSeqNum = seqNum;
        MOV     A,#0x24
        LCALL   ?XSTACK_DISP0_8
        MOVX    A,@DPTR
        PUSH    A
          CFI CFA_SP SP+-1
        MOV     A,#0x4
        LCALL   ?XSTACK_DISP0_8
        POP     A
          CFI CFA_SP SP+0
        MOVX    @DPTR,A
//  912 
//  913   // Fill in the command
//  914   hdr.commandID = cmd;
        MOV     A,#0x5
        LCALL   ?XSTACK_DISP0_8
        MOV     A,R6
        MOVX    @DPTR,A
//  915 
//  916   // calculate the needed buffer size
//  917   msgLen = zclCalcHdrSize( &hdr );
        MOV     ?V0,#0x3
        MOV     DPL,?XSP + 0
        MOV     DPH,?XSP + 1
        MOVX    A,@DPTR
        ANL     A,#0x4
        JZ      ??zcl_SendCommand_11
        MOV     ?V0,#0x5
??zcl_SendCommand_11:
        MOV     A,#0x25
        LCALL   ?XSTACK_DISP0_8
        LCALL   ?Subroutine108 & 0xFFFF
//  918   msgLen += cmdFormatLen;
??CrossCallReturnLabel_178:
        MOV     A,?V0
        ADD     A,R6
        MOV     ?V0,A
        CLR     A
        ADDC    A,R7
        MOV     ?V1,A
//  919 
//  920   // Allocate the buffer needed
//  921   msgBuf = zcl_mem_alloc( msgLen );
        ; Setup parameters for call to function osal_mem_alloc
        MOV     R2,?V0
        MOV     R3,A
        LCALL   ??osal_mem_alloc?relay; Banked call to: osal_mem_alloc
        MOV     ?V8,R2
        MOV     ?V9,R3
//  922   if ( msgBuf != NULL )
        MOV     A,R2
        ORL     A,?V9
        JZ      ??zcl_SendCommand_12
//  923   {
//  924     // Fill in the ZCL Header
//  925     pBuf = zclBuildHdr( &hdr, msgBuf );
//  926 
//  927     // Fill in the command frame
//  928     zcl_memcpy( pBuf, cmdFormat, cmdFormatLen );
        ; Setup parameters for call to function osal_memcpy
        MOV     A,#0x27
        LCALL   ?XSTACK_DISP0_8
        LCALL   ?Subroutine66 & 0xFFFF
??CrossCallReturnLabel_100:
        LCALL   ?PUSH_XSTACK_I_THREE
          CFI CFA_XSP16 add(XSP16, 33)
        ; Setup parameters for call to function zclBuildHdr
        MOV     R4,?V8
        MOV     R5,?V9
        MOV     A,#0x3
        LCALL   ?XSTACK_DISP101_8
        LCALL   ??zclBuildHdr?relay  ; Banked call to: zclBuildHdr
        MOV     A,R6
        MOV     R4,A
        MOV     A,R7
        MOV     R5,A
        LCALL   ??osal_memcpy?relay  ; Banked call to: osal_memcpy
        MOV     A,#0x3
        LCALL   ?DEALLOC_XSTACK8
          CFI CFA_XSP16 add(XSP16, 30)
//  929 
//  930     status = AF_DataRequest( destAddr, epDesc, clusterID, msgLen, msgBuf,
//  931                              &zcl_TransID, options, AF_DEFAULT_RADIUS );
        ; Setup parameters for call to function AF_DataRequest
        MOV     ?V4,#0x1e
        MOV     R0,#?V4
        LCALL   ?PUSH_XSTACK_I_ONE
          CFI CFA_XSP16 add(XSP16, 31)
        MOV     ?V4,#zcl_TransID & 0xff
        MOV     ?V5,#(zcl_TransID >> 8) & 0xff
        MOV     R0,#?V4
        LCALL   ?PUSH_XSTACK_I_TWO
          CFI CFA_XSP16 add(XSP16, 33)
        MOV     R0,#?V8
        LCALL   ?PUSH_XSTACK_I_TWO
          CFI CFA_XSP16 add(XSP16, 35)
        MOV     R0,#?V0
        LCALL   ?PUSH_XSTACK_I_TWO
          CFI CFA_XSP16 add(XSP16, 37)
        MOV     R0,#?V2
        LCALL   ?PUSH_XSTACK_I_TWO
          CFI CFA_XSP16 add(XSP16, 39)
        MOV     R1,?V7
        MOV     R4,?V12
        MOV     R5,?V13
        MOV     R2,?V14
        MOV     R3,?V15
        LCALL   ??AF_DataRequest?relay; Banked call to: AF_DataRequest
        MOV     A,#0x9
        LCALL   ?DEALLOC_XSTACK8
          CFI CFA_XSP16 add(XSP16, 30)
        MOV     A,R1
        MOV     R6,A
//  932     zcl_mem_free ( msgBuf );
        ; Setup parameters for call to function osal_mem_free
        MOV     R2,?V8
        MOV     R3,?V9
        LCALL   ??osal_mem_free?relay; Banked call to: osal_mem_free
        SJMP    ??zcl_SendCommand_13
//  933   }
//  934   else
//  935   {
//  936     status = ZMemError;
??zcl_SendCommand_12:
        MOV     R6,#0x10
//  937   }
//  938 
//  939   return ( status );
??zcl_SendCommand_13:
        MOV     A,R6
        MOV     R1,A
??zcl_SendCommand_1:
        MOV     A,#0x6
        LJMP    ?Subroutine4 & 0xFFFF
          CFI EndBlock cfiBlock44
//  940 }
//  941 
//  942 #ifdef ZCL_READ
//  943 /*********************************************************************
//  944  * @fn      zcl_SendRead
//  945  *
//  946  * @brief   Send a Read command
//  947  *
//  948  * @param   srcEP - Application's endpoint
//  949  * @param   dstAddr - destination address
//  950  * @param   clusterID - cluster ID
//  951  * @param   readCmd - read command to be sent
//  952  * @param   direction - direction of the command
//  953  * @param   seqNum - transaction sequence number
//  954  *
//  955  * @return  ZSuccess if OK
//  956  */

        RSEG BANKED_CODE:CODE:NOROOT(0)
//  957 ZStatus_t zcl_SendRead( uint8 srcEP, afAddrType_t *dstAddr,
zcl_SendRead:
          CFI Block cfiBlock45 Using cfiCommon0
          CFI Function zcl_SendRead
        CODE
//  958                         uint16 clusterID, zclReadCmd_t *readCmd,
//  959                         uint8 direction, uint8 disableDefaultRsp, uint8 seqNum)
//  960 {
        FUNCALL zcl_SendRead, osal_mem_alloc
        LOCFRAME ISTACK, 0, STACK
        LOCFRAME PSTACK, 0, STACK
        LOCFRAME XSTACK, 20, STACK
        LOCFRAME IOVERLAY, 0, STATIC
        LOCFRAME DOVERLAY, 0, STATIC
        ARGFRAME ISTACK, 0, STACK
        ARGFRAME PSTACK, 0, STACK
        ARGFRAME XSTACK, 20, STACK
        ARGFRAME IOVERLAY, 0, STATIC
        ARGFRAME DOVERLAY, 0, STATIC
        FUNCALL zcl_SendRead, zcl_SendCommand
        LOCFRAME ISTACK, 0, STACK
        LOCFRAME PSTACK, 0, STACK
        LOCFRAME XSTACK, 31, STACK
        LOCFRAME IOVERLAY, 0, STATIC
        LOCFRAME DOVERLAY, 0, STATIC
        ARGFRAME ISTACK, 0, STACK
        ARGFRAME PSTACK, 0, STACK
        ARGFRAME XSTACK, 31, STACK
        ARGFRAME IOVERLAY, 0, STATIC
        ARGFRAME DOVERLAY, 0, STATIC
        FUNCALL zcl_SendRead, osal_mem_free
        LOCFRAME ISTACK, 0, STACK
        LOCFRAME PSTACK, 0, STACK
        LOCFRAME XSTACK, 20, STACK
        LOCFRAME IOVERLAY, 0, STATIC
        LOCFRAME DOVERLAY, 0, STATIC
        ARGFRAME ISTACK, 0, STACK
        ARGFRAME PSTACK, 0, STACK
        ARGFRAME XSTACK, 20, STACK
        ARGFRAME IOVERLAY, 0, STATIC
        ARGFRAME DOVERLAY, 0, STATIC
        REQUIRE ?V0
        REQUIRE ?V1
        REQUIRE ?V2
        REQUIRE ?V3
        REQUIRE ?V4
        REQUIRE ?V5
        REQUIRE ?V6
        REQUIRE ?V7
        REQUIRE ?V8
        REQUIRE ?V9
        REQUIRE ?V10
        REQUIRE ?V11
        MOV     A,#-0x14
        LCALL   ?BANKED_ENTER_XDATA
          CFI DPH0 load(1, XDATA, add(CFA_XSP16, literal(-1)))
          CFI DPL0 load(1, XDATA, add(CFA_XSP16, literal(-2)))
          CFI ?BRET_EXT load(1, XDATA, add(CFA_XSP16, literal(-3)))
          CFI ?RET_HIGH load(1, XDATA, add(CFA_XSP16, literal(-4)))
          CFI ?RET_LOW load(1, XDATA, add(CFA_XSP16, literal(-5)))
          CFI R7 load(1, XDATA, add(CFA_XSP16, literal(-6)))
          CFI V11 load(1, XDATA, add(CFA_XSP16, literal(-7)))
          CFI V10 load(1, XDATA, add(CFA_XSP16, literal(-8)))
          CFI V9 load(1, XDATA, add(CFA_XSP16, literal(-9)))
          CFI V8 load(1, XDATA, add(CFA_XSP16, literal(-10)))
          CFI V7 load(1, XDATA, add(CFA_XSP16, literal(-11)))
          CFI V6 load(1, XDATA, add(CFA_XSP16, literal(-12)))
          CFI V5 load(1, XDATA, add(CFA_XSP16, literal(-13)))
          CFI V4 load(1, XDATA, add(CFA_XSP16, literal(-14)))
          CFI V3 load(1, XDATA, add(CFA_XSP16, literal(-15)))
          CFI V2 load(1, XDATA, add(CFA_XSP16, literal(-16)))
          CFI V1 load(1, XDATA, add(CFA_XSP16, literal(-17)))
          CFI V0 load(1, XDATA, add(CFA_XSP16, literal(-18)))
          CFI VB load(1, XDATA, add(CFA_XSP16, literal(-19)))
          CFI R6 load(1, XDATA, add(CFA_XSP16, literal(-20)))
          CFI CFA_SP SP+0
          CFI CFA_XSP16 add(XSP16, 20)
        ; Saved register size: 20
        ; Auto size: 0
        MOV     ?V2,R1
        MOV     ?V8,R2
        MOV     ?V9,R3
        MOV     A,R4
        MOV     R6,A
        MOV     A,R5
        MOV     R7,A
        MOV     A,#0x14
        LCALL   ?XSTACK_DISP0_8
        LCALL   ?Subroutine82 & 0xFFFF
//  961   uint16 dataLen;
//  962   uint8 *buf;
//  963   uint8 *pBuf;
//  964   ZStatus_t status;
//  965 
//  966   dataLen = readCmd->numAttr * 2; // Attribute ID
??CrossCallReturnLabel_131:
        MOVX    A,@DPTR
        ADD     A,0xE0 /* A   */
        MOV     ?V6,A
        CLR     A
        RLC     A
        MOV     ?V7,A
//  967 
//  968   buf = zcl_mem_alloc( dataLen );
        ; Setup parameters for call to function osal_mem_alloc
        MOV     R2,?V6
        MOV     R3,A
        LCALL   ??osal_mem_alloc?relay; Banked call to: osal_mem_alloc
        MOV     ?V0,R2
        MOV     ?V1,R3
//  969   if ( buf != NULL )
        MOV     A,R2
        ORL     A,?V1
        JNZ     $+5
        LJMP    ??zcl_SendRead_0 & 0xFFFF
//  970   {
//  971     uint8 i;
//  972 
//  973     // Load the buffer - serially
//  974     pBuf = buf;
        MOV     R0,?V0
        MOV     R1,?V1
//  975     for (i = 0; i < readCmd->numAttr; i++)
        MOV     ?V3,#0x0
        SJMP    ??zcl_SendRead_1
//  976     {
//  977       *pBuf++ = LO_UINT16( readCmd->attrID[i] );
??zcl_SendRead_2:
        MOV     R2,?V3
        MOV     A,R2
        ADD     A,R2
        MOV     R2,A
        CLR     A
        RLC     A
        MOV     R3,A
        MOV     A,?V4
        ADD     A,R2
        MOV     DPL,A
        MOV     A,?V5
        ADDC    A,R3
        MOV     DPH,A
        INC     DPTR
        MOV     R2,DPL
        MOV     R3,DPH
        LCALL   ?Subroutine141 & 0xFFFF
//  978       *pBuf++ = HI_UINT16( readCmd->attrID[i] );
??CrossCallReturnLabel_237:
        LCALL   ?Subroutine134 & 0xFFFF
//  979     }
??CrossCallReturnLabel_269:
        INC     ?V3
??zcl_SendRead_1:
        MOV     DPL,?V4
        MOV     DPH,?V5
        MOVX    A,@DPTR
        MOV     R2,A
        MOV     A,?V3
        CLR     C
        SUBB    A,R2
        JC      ??zcl_SendRead_2
//  980 
//  981     status = zcl_SendCommand( srcEP, dstAddr, clusterID, ZCL_CMD_READ, FALSE,
//  982                               direction, disableDefaultRsp, 0, seqNum, dataLen, buf );
        ; Setup parameters for call to function zcl_SendCommand
        MOV     R0,#?V0
        LCALL   ?PUSH_XSTACK_I_TWO
          CFI CFA_XSP16 add(XSP16, 22)
        MOV     R0,#?V6
        LCALL   ?PUSH_XSTACK_I_TWO
          CFI CFA_XSP16 add(XSP16, 24)
        MOV     A,#0x1c
        LCALL   ?XSTACK_DISP0_8
        LCALL   ?Subroutine60 & 0xFFFF
??CrossCallReturnLabel_81:
        LCALL   ?PUSH_XSTACK_I_ONE
          CFI CFA_XSP16 add(XSP16, 25)
        CLR     A
        MOV     ?V4,A
        MOV     ?V5,A
        MOV     R0,#?V4
        LCALL   ?PUSH_XSTACK_I_TWO
          CFI CFA_XSP16 add(XSP16, 27)
        MOV     A,#0x1e
        LCALL   ?XSTACK_DISP0_8
        LCALL   ?Subroutine60 & 0xFFFF
??CrossCallReturnLabel_82:
        LCALL   ?PUSH_XSTACK_I_ONE
          CFI CFA_XSP16 add(XSP16, 28)
        MOV     A,#0x1e
        LCALL   ?XSTACK_DISP0_8
        LCALL   ?Subroutine60 & 0xFFFF
??CrossCallReturnLabel_83:
        LCALL   ?PUSH_XSTACK_I_ONE
          CFI CFA_XSP16 add(XSP16, 29)
        MOV     ?V3,#0x0
        MOV     R0,#?V3
        LCALL   ?PUSH_XSTACK_I_ONE
          CFI CFA_XSP16 add(XSP16, 30)
        MOV     R0,#?V3
        LCALL   ?PUSH_XSTACK_I_ONE
          CFI CFA_XSP16 add(XSP16, 31)
        MOV     A,R6
        MOV     R4,A
        MOV     A,R7
        MOV     R5,A
        MOV     R2,?V8
        MOV     R3,?V9
        MOV     R1,?V2
        LCALL   ??zcl_SendCommand?relay; Banked call to: zcl_SendCommand
        MOV     A,#0xb
        LCALL   ?DEALLOC_XSTACK8
          CFI CFA_XSP16 add(XSP16, 20)
        MOV     A,R1
        MOV     R6,A
//  983     zcl_mem_free( buf );
        ; Setup parameters for call to function osal_mem_free
        MOV     R2,?V0
        MOV     R3,?V1
        LCALL   ??osal_mem_free?relay; Banked call to: osal_mem_free
        SJMP    ??zcl_SendRead_3
//  984   }
//  985   else
//  986   {
//  987     status = ZMemError;
??zcl_SendRead_0:
        MOV     R6,#0x10
//  988   }
//  989 
//  990   return ( status );
??zcl_SendRead_3:
        LJMP    ?Subroutine10 & 0xFFFF
          CFI EndBlock cfiBlock45
//  991 }

        RSEG BANKED_CODE:CODE:NOROOT(0)
?Subroutine134:
          CFI Block cfiCond46 Using cfiCommon0
          CFI Function zcl_SendRead
          CFI Conditional ??CrossCallReturnLabel_269
          CFI R6 load(1, XDATA, add(CFA_XSP16, literal(-20)))
          CFI VB load(1, XDATA, add(CFA_XSP16, literal(-19)))
          CFI V0 load(1, XDATA, add(CFA_XSP16, literal(-18)))
          CFI V1 load(1, XDATA, add(CFA_XSP16, literal(-17)))
          CFI V2 load(1, XDATA, add(CFA_XSP16, literal(-16)))
          CFI V3 load(1, XDATA, add(CFA_XSP16, literal(-15)))
          CFI V4 load(1, XDATA, add(CFA_XSP16, literal(-14)))
          CFI V5 load(1, XDATA, add(CFA_XSP16, literal(-13)))
          CFI V6 load(1, XDATA, add(CFA_XSP16, literal(-12)))
          CFI V7 load(1, XDATA, add(CFA_XSP16, literal(-11)))
          CFI V8 load(1, XDATA, add(CFA_XSP16, literal(-10)))
          CFI V9 load(1, XDATA, add(CFA_XSP16, literal(-9)))
          CFI V10 load(1, XDATA, add(CFA_XSP16, literal(-8)))
          CFI V11 load(1, XDATA, add(CFA_XSP16, literal(-7)))
          CFI R7 load(1, XDATA, add(CFA_XSP16, literal(-6)))
          CFI ?RET_LOW load(1, XDATA, add(CFA_XSP16, literal(-5)))
          CFI ?RET_HIGH load(1, XDATA, add(CFA_XSP16, literal(-4)))
          CFI ?BRET_EXT load(1, XDATA, add(CFA_XSP16, literal(-3)))
          CFI DPL0 load(1, XDATA, add(CFA_XSP16, literal(-2)))
          CFI DPH0 load(1, XDATA, add(CFA_XSP16, literal(-1)))
          CFI CFA_SP SP+-2
          CFI CFA_XSP16 add(XSP16, 20)
          CFI Block cfiCond47 Using cfiCommon0
          CFI (cfiCond47) Function zcl_SendWriteRsp
          CFI (cfiCond47) Conditional ??CrossCallReturnLabel_270, ??CrossCallReturnLabel_10
          CFI (cfiCond47) R6 load(1, XDATA, add(CFA_XSP16, literal(-20)))
          CFI (cfiCond47) VB load(1, XDATA, add(CFA_XSP16, literal(-19)))
          CFI (cfiCond47) V0 load(1, XDATA, add(CFA_XSP16, literal(-18)))
          CFI (cfiCond47) V1 load(1, XDATA, add(CFA_XSP16, literal(-17)))
          CFI (cfiCond47) V2 load(1, XDATA, add(CFA_XSP16, literal(-16)))
          CFI (cfiCond47) V3 load(1, XDATA, add(CFA_XSP16, literal(-15)))
          CFI (cfiCond47) V4 load(1, XDATA, add(CFA_XSP16, literal(-14)))
          CFI (cfiCond47) V5 load(1, XDATA, add(CFA_XSP16, literal(-13)))
          CFI (cfiCond47) V6 load(1, XDATA, add(CFA_XSP16, literal(-12)))
          CFI (cfiCond47) V7 load(1, XDATA, add(CFA_XSP16, literal(-11)))
          CFI (cfiCond47) V8 load(1, XDATA, add(CFA_XSP16, literal(-10)))
          CFI (cfiCond47) V9 load(1, XDATA, add(CFA_XSP16, literal(-9)))
          CFI (cfiCond47) V10 load(1, XDATA, add(CFA_XSP16, literal(-8)))
          CFI (cfiCond47) V11 load(1, XDATA, add(CFA_XSP16, literal(-7)))
          CFI (cfiCond47) R7 load(1, XDATA, add(CFA_XSP16, literal(-6)))
          CFI (cfiCond47) ?RET_LOW load(1, XDATA, add(CFA_XSP16, literal(-5)))
          CFI (cfiCond47) ?RET_HIGH load(1, XDATA, add(CFA_XSP16, literal(-4)))
          CFI (cfiCond47) ?BRET_EXT load(1, XDATA, add(CFA_XSP16, literal(-3)))
          CFI (cfiCond47) DPL0 load(1, XDATA, add(CFA_XSP16, literal(-2)))
          CFI (cfiCond47) DPH0 load(1, XDATA, add(CFA_XSP16, literal(-1)))
          CFI (cfiCond47) CFA_SP SP+-4
          CFI (cfiCond47) CFA_XSP16 add(XSP16, 20)
          CFI Block cfiCond48 Using cfiCommon0
          CFI (cfiCond48) Function zcl_SendReadReportCfgCmd
          CFI (cfiCond48) Conditional ??CrossCallReturnLabel_270, ??CrossCallReturnLabel_11
          CFI (cfiCond48) R6 load(1, XDATA, add(CFA_XSP16, literal(-20)))
          CFI (cfiCond48) VB load(1, XDATA, add(CFA_XSP16, literal(-19)))
          CFI (cfiCond48) V0 load(1, XDATA, add(CFA_XSP16, literal(-18)))
          CFI (cfiCond48) V1 load(1, XDATA, add(CFA_XSP16, literal(-17)))
          CFI (cfiCond48) V2 load(1, XDATA, add(CFA_XSP16, literal(-16)))
          CFI (cfiCond48) V3 load(1, XDATA, add(CFA_XSP16, literal(-15)))
          CFI (cfiCond48) V4 load(1, XDATA, add(CFA_XSP16, literal(-14)))
          CFI (cfiCond48) V5 load(1, XDATA, add(CFA_XSP16, literal(-13)))
          CFI (cfiCond48) V6 load(1, XDATA, add(CFA_XSP16, literal(-12)))
          CFI (cfiCond48) V7 load(1, XDATA, add(CFA_XSP16, literal(-11)))
          CFI (cfiCond48) V8 load(1, XDATA, add(CFA_XSP16, literal(-10)))
          CFI (cfiCond48) V9 load(1, XDATA, add(CFA_XSP16, literal(-9)))
          CFI (cfiCond48) V10 load(1, XDATA, add(CFA_XSP16, literal(-8)))
          CFI (cfiCond48) V11 load(1, XDATA, add(CFA_XSP16, literal(-7)))
          CFI (cfiCond48) R7 load(1, XDATA, add(CFA_XSP16, literal(-6)))
          CFI (cfiCond48) ?RET_LOW load(1, XDATA, add(CFA_XSP16, literal(-5)))
          CFI (cfiCond48) ?RET_HIGH load(1, XDATA, add(CFA_XSP16, literal(-4)))
          CFI (cfiCond48) ?BRET_EXT load(1, XDATA, add(CFA_XSP16, literal(-3)))
          CFI (cfiCond48) DPL0 load(1, XDATA, add(CFA_XSP16, literal(-2)))
          CFI (cfiCond48) DPH0 load(1, XDATA, add(CFA_XSP16, literal(-1)))
          CFI (cfiCond48) CFA_SP SP+-4
          CFI (cfiCond48) CFA_XSP16 add(XSP16, 20)
          CFI Block cfiPicker49 Using cfiCommon1
          CFI (cfiPicker49) NoFunction
          CFI (cfiPicker49) Picker
        MOV     DPL,R2
        MOV     DPH,R3
        INC     DPTR
          CFI EndBlock cfiCond46
          CFI EndBlock cfiCond47
          CFI EndBlock cfiCond48
          CFI EndBlock cfiPicker49
        REQUIRE ??Subroutine166_0
        ; // Fall through to label ??Subroutine166_0

        RSEG BANKED_CODE:CODE:NOROOT(0)
??Subroutine166_0:
          CFI Block cfiCond50 Using cfiCommon0
          CFI Function zcl_SendWriteRsp
          CFI Conditional ??CrossCallReturnLabel_268, ??CrossCallReturnLabel_10
          CFI R6 load(1, XDATA, add(CFA_XSP16, literal(-20)))
          CFI VB load(1, XDATA, add(CFA_XSP16, literal(-19)))
          CFI V0 load(1, XDATA, add(CFA_XSP16, literal(-18)))
          CFI V1 load(1, XDATA, add(CFA_XSP16, literal(-17)))
          CFI V2 load(1, XDATA, add(CFA_XSP16, literal(-16)))
          CFI V3 load(1, XDATA, add(CFA_XSP16, literal(-15)))
          CFI V4 load(1, XDATA, add(CFA_XSP16, literal(-14)))
          CFI V5 load(1, XDATA, add(CFA_XSP16, literal(-13)))
          CFI V6 load(1, XDATA, add(CFA_XSP16, literal(-12)))
          CFI V7 load(1, XDATA, add(CFA_XSP16, literal(-11)))
          CFI V8 load(1, XDATA, add(CFA_XSP16, literal(-10)))
          CFI V9 load(1, XDATA, add(CFA_XSP16, literal(-9)))
          CFI V10 load(1, XDATA, add(CFA_XSP16, literal(-8)))
          CFI V11 load(1, XDATA, add(CFA_XSP16, literal(-7)))
          CFI R7 load(1, XDATA, add(CFA_XSP16, literal(-6)))
          CFI ?RET_LOW load(1, XDATA, add(CFA_XSP16, literal(-5)))
          CFI ?RET_HIGH load(1, XDATA, add(CFA_XSP16, literal(-4)))
          CFI ?BRET_EXT load(1, XDATA, add(CFA_XSP16, literal(-3)))
          CFI DPL0 load(1, XDATA, add(CFA_XSP16, literal(-2)))
          CFI DPH0 load(1, XDATA, add(CFA_XSP16, literal(-1)))
          CFI CFA_SP SP+-4
          CFI CFA_XSP16 add(XSP16, 20)
          CFI Block cfiCond51 Using cfiCommon0
          CFI (cfiCond51) Function zcl_SendReadReportCfgCmd
          CFI (cfiCond51) Conditional ??CrossCallReturnLabel_268, ??CrossCallReturnLabel_11
          CFI (cfiCond51) R6 load(1, XDATA, add(CFA_XSP16, literal(-20)))
          CFI (cfiCond51) VB load(1, XDATA, add(CFA_XSP16, literal(-19)))
          CFI (cfiCond51) V0 load(1, XDATA, add(CFA_XSP16, literal(-18)))
          CFI (cfiCond51) V1 load(1, XDATA, add(CFA_XSP16, literal(-17)))
          CFI (cfiCond51) V2 load(1, XDATA, add(CFA_XSP16, literal(-16)))
          CFI (cfiCond51) V3 load(1, XDATA, add(CFA_XSP16, literal(-15)))
          CFI (cfiCond51) V4 load(1, XDATA, add(CFA_XSP16, literal(-14)))
          CFI (cfiCond51) V5 load(1, XDATA, add(CFA_XSP16, literal(-13)))
          CFI (cfiCond51) V6 load(1, XDATA, add(CFA_XSP16, literal(-12)))
          CFI (cfiCond51) V7 load(1, XDATA, add(CFA_XSP16, literal(-11)))
          CFI (cfiCond51) V8 load(1, XDATA, add(CFA_XSP16, literal(-10)))
          CFI (cfiCond51) V9 load(1, XDATA, add(CFA_XSP16, literal(-9)))
          CFI (cfiCond51) V10 load(1, XDATA, add(CFA_XSP16, literal(-8)))
          CFI (cfiCond51) V11 load(1, XDATA, add(CFA_XSP16, literal(-7)))
          CFI (cfiCond51) R7 load(1, XDATA, add(CFA_XSP16, literal(-6)))
          CFI (cfiCond51) ?RET_LOW load(1, XDATA, add(CFA_XSP16, literal(-5)))
          CFI (cfiCond51) ?RET_HIGH load(1, XDATA, add(CFA_XSP16, literal(-4)))
          CFI (cfiCond51) ?BRET_EXT load(1, XDATA, add(CFA_XSP16, literal(-3)))
          CFI (cfiCond51) DPL0 load(1, XDATA, add(CFA_XSP16, literal(-2)))
          CFI (cfiCond51) DPH0 load(1, XDATA, add(CFA_XSP16, literal(-1)))
          CFI (cfiCond51) CFA_SP SP+-4
          CFI (cfiCond51) CFA_XSP16 add(XSP16, 20)
          CFI Block cfiCond52 Using cfiCommon0
          CFI (cfiCond52) Function zcl_SendRead
          CFI (cfiCond52) Conditional ??CrossCallReturnLabel_269
          CFI (cfiCond52) R6 load(1, XDATA, add(CFA_XSP16, literal(-20)))
          CFI (cfiCond52) VB load(1, XDATA, add(CFA_XSP16, literal(-19)))
          CFI (cfiCond52) V0 load(1, XDATA, add(CFA_XSP16, literal(-18)))
          CFI (cfiCond52) V1 load(1, XDATA, add(CFA_XSP16, literal(-17)))
          CFI (cfiCond52) V2 load(1, XDATA, add(CFA_XSP16, literal(-16)))
          CFI (cfiCond52) V3 load(1, XDATA, add(CFA_XSP16, literal(-15)))
          CFI (cfiCond52) V4 load(1, XDATA, add(CFA_XSP16, literal(-14)))
          CFI (cfiCond52) V5 load(1, XDATA, add(CFA_XSP16, literal(-13)))
          CFI (cfiCond52) V6 load(1, XDATA, add(CFA_XSP16, literal(-12)))
          CFI (cfiCond52) V7 load(1, XDATA, add(CFA_XSP16, literal(-11)))
          CFI (cfiCond52) V8 load(1, XDATA, add(CFA_XSP16, literal(-10)))
          CFI (cfiCond52) V9 load(1, XDATA, add(CFA_XSP16, literal(-9)))
          CFI (cfiCond52) V10 load(1, XDATA, add(CFA_XSP16, literal(-8)))
          CFI (cfiCond52) V11 load(1, XDATA, add(CFA_XSP16, literal(-7)))
          CFI (cfiCond52) R7 load(1, XDATA, add(CFA_XSP16, literal(-6)))
          CFI (cfiCond52) ?RET_LOW load(1, XDATA, add(CFA_XSP16, literal(-5)))
          CFI (cfiCond52) ?RET_HIGH load(1, XDATA, add(CFA_XSP16, literal(-4)))
          CFI (cfiCond52) ?BRET_EXT load(1, XDATA, add(CFA_XSP16, literal(-3)))
          CFI (cfiCond52) DPL0 load(1, XDATA, add(CFA_XSP16, literal(-2)))
          CFI (cfiCond52) DPH0 load(1, XDATA, add(CFA_XSP16, literal(-1)))
          CFI (cfiCond52) CFA_SP SP+-2
          CFI (cfiCond52) CFA_XSP16 add(XSP16, 20)
          CFI Block cfiCond53 Using cfiCommon0
          CFI (cfiCond53) Function zcl_SendWriteRsp
          CFI (cfiCond53) Conditional ??CrossCallReturnLabel_270, ??CrossCallReturnLabel_10
          CFI (cfiCond53) R6 load(1, XDATA, add(CFA_XSP16, literal(-20)))
          CFI (cfiCond53) VB load(1, XDATA, add(CFA_XSP16, literal(-19)))
          CFI (cfiCond53) V0 load(1, XDATA, add(CFA_XSP16, literal(-18)))
          CFI (cfiCond53) V1 load(1, XDATA, add(CFA_XSP16, literal(-17)))
          CFI (cfiCond53) V2 load(1, XDATA, add(CFA_XSP16, literal(-16)))
          CFI (cfiCond53) V3 load(1, XDATA, add(CFA_XSP16, literal(-15)))
          CFI (cfiCond53) V4 load(1, XDATA, add(CFA_XSP16, literal(-14)))
          CFI (cfiCond53) V5 load(1, XDATA, add(CFA_XSP16, literal(-13)))
          CFI (cfiCond53) V6 load(1, XDATA, add(CFA_XSP16, literal(-12)))
          CFI (cfiCond53) V7 load(1, XDATA, add(CFA_XSP16, literal(-11)))
          CFI (cfiCond53) V8 load(1, XDATA, add(CFA_XSP16, literal(-10)))
          CFI (cfiCond53) V9 load(1, XDATA, add(CFA_XSP16, literal(-9)))
          CFI (cfiCond53) V10 load(1, XDATA, add(CFA_XSP16, literal(-8)))
          CFI (cfiCond53) V11 load(1, XDATA, add(CFA_XSP16, literal(-7)))
          CFI (cfiCond53) R7 load(1, XDATA, add(CFA_XSP16, literal(-6)))
          CFI (cfiCond53) ?RET_LOW load(1, XDATA, add(CFA_XSP16, literal(-5)))
          CFI (cfiCond53) ?RET_HIGH load(1, XDATA, add(CFA_XSP16, literal(-4)))
          CFI (cfiCond53) ?BRET_EXT load(1, XDATA, add(CFA_XSP16, literal(-3)))
          CFI (cfiCond53) DPL0 load(1, XDATA, add(CFA_XSP16, literal(-2)))
          CFI (cfiCond53) DPH0 load(1, XDATA, add(CFA_XSP16, literal(-1)))
          CFI (cfiCond53) CFA_SP SP+-4
          CFI (cfiCond53) CFA_XSP16 add(XSP16, 20)
          CFI Block cfiCond54 Using cfiCommon0
          CFI (cfiCond54) Function zcl_SendReadReportCfgCmd
          CFI (cfiCond54) Conditional ??CrossCallReturnLabel_270, ??CrossCallReturnLabel_11
          CFI (cfiCond54) R6 load(1, XDATA, add(CFA_XSP16, literal(-20)))
          CFI (cfiCond54) VB load(1, XDATA, add(CFA_XSP16, literal(-19)))
          CFI (cfiCond54) V0 load(1, XDATA, add(CFA_XSP16, literal(-18)))
          CFI (cfiCond54) V1 load(1, XDATA, add(CFA_XSP16, literal(-17)))
          CFI (cfiCond54) V2 load(1, XDATA, add(CFA_XSP16, literal(-16)))
          CFI (cfiCond54) V3 load(1, XDATA, add(CFA_XSP16, literal(-15)))
          CFI (cfiCond54) V4 load(1, XDATA, add(CFA_XSP16, literal(-14)))
          CFI (cfiCond54) V5 load(1, XDATA, add(CFA_XSP16, literal(-13)))
          CFI (cfiCond54) V6 load(1, XDATA, add(CFA_XSP16, literal(-12)))
          CFI (cfiCond54) V7 load(1, XDATA, add(CFA_XSP16, literal(-11)))
          CFI (cfiCond54) V8 load(1, XDATA, add(CFA_XSP16, literal(-10)))
          CFI (cfiCond54) V9 load(1, XDATA, add(CFA_XSP16, literal(-9)))
          CFI (cfiCond54) V10 load(1, XDATA, add(CFA_XSP16, literal(-8)))
          CFI (cfiCond54) V11 load(1, XDATA, add(CFA_XSP16, literal(-7)))
          CFI (cfiCond54) R7 load(1, XDATA, add(CFA_XSP16, literal(-6)))
          CFI (cfiCond54) ?RET_LOW load(1, XDATA, add(CFA_XSP16, literal(-5)))
          CFI (cfiCond54) ?RET_HIGH load(1, XDATA, add(CFA_XSP16, literal(-4)))
          CFI (cfiCond54) ?BRET_EXT load(1, XDATA, add(CFA_XSP16, literal(-3)))
          CFI (cfiCond54) DPL0 load(1, XDATA, add(CFA_XSP16, literal(-2)))
          CFI (cfiCond54) DPH0 load(1, XDATA, add(CFA_XSP16, literal(-1)))
          CFI (cfiCond54) CFA_SP SP+-4
          CFI (cfiCond54) CFA_XSP16 add(XSP16, 20)
          CFI Block cfiPicker55 Using cfiCommon1
          CFI (cfiPicker55) NoFunction
          CFI (cfiPicker55) Picker
        LCALL   ?Subroutine161 & 0xFFFF
??CrossCallReturnLabel_390:
        MOVX    @DPTR,A
        INC     DPTR
        INC     R0
        MOV     R1,DPH
        RET
          CFI EndBlock cfiCond50
          CFI EndBlock cfiCond51
          CFI EndBlock cfiCond52
          CFI EndBlock cfiCond53
          CFI EndBlock cfiCond54
          CFI EndBlock cfiPicker55
//  992 
//  993 /*********************************************************************
//  994  * @fn      zcl_SendReadRsp
//  995  *
//  996  * @brief   Send a Read Response command.
//  997  *
//  998  * @param   srcEP - Application's endpoint
//  999  * @param   dstAddr - destination address
// 1000  * @param   clusterID - cluster ID
// 1001  * @param   readRspCmd - read response command to be sent
// 1002  * @param   direction - direction of the command
// 1003  * @param   seqNum - transaction sequence number
// 1004  *
// 1005  * @return  ZSuccess if OK
// 1006  */

        RSEG BANKED_CODE:CODE:NOROOT(0)
// 1007 ZStatus_t zcl_SendReadRsp( uint8 srcEP, afAddrType_t *dstAddr,
zcl_SendReadRsp:
          CFI Block cfiBlock56 Using cfiCommon0
          CFI Function zcl_SendReadRsp
        CODE
// 1008                            uint16 clusterID, zclReadRspCmd_t *readRspCmd,
// 1009                            uint8 direction, uint8 disableDefaultRsp, uint8 seqNum )
// 1010 {
        FUNCALL zcl_SendReadRsp, zclGetAttrDataLengthUsingCB
        LOCFRAME ISTACK, 0, STACK
        LOCFRAME PSTACK, 0, STACK
        LOCFRAME XSTACK, 24, STACK
        LOCFRAME IOVERLAY, 0, STATIC
        LOCFRAME DOVERLAY, 0, STATIC
        ARGFRAME ISTACK, 0, STACK
        ARGFRAME PSTACK, 0, STACK
        ARGFRAME XSTACK, 24, STACK
        ARGFRAME IOVERLAY, 0, STATIC
        ARGFRAME DOVERLAY, 0, STATIC
        FUNCALL zcl_SendReadRsp, zclGetAttrDataLength
        LOCFRAME ISTACK, 0, STACK
        LOCFRAME PSTACK, 0, STACK
        LOCFRAME XSTACK, 24, STACK
        LOCFRAME IOVERLAY, 0, STATIC
        LOCFRAME DOVERLAY, 0, STATIC
        ARGFRAME ISTACK, 0, STACK
        ARGFRAME PSTACK, 0, STACK
        ARGFRAME XSTACK, 24, STACK
        ARGFRAME IOVERLAY, 0, STATIC
        ARGFRAME DOVERLAY, 0, STATIC
        FUNCALL zcl_SendReadRsp, osal_mem_alloc
        LOCFRAME ISTACK, 0, STACK
        LOCFRAME PSTACK, 0, STACK
        LOCFRAME XSTACK, 24, STACK
        LOCFRAME IOVERLAY, 0, STATIC
        LOCFRAME DOVERLAY, 0, STATIC
        ARGFRAME ISTACK, 0, STACK
        ARGFRAME PSTACK, 0, STACK
        ARGFRAME XSTACK, 24, STACK
        ARGFRAME IOVERLAY, 0, STATIC
        ARGFRAME DOVERLAY, 0, STATIC
        FUNCALL zcl_SendReadRsp, zclReadAttrDataUsingCB
        LOCFRAME ISTACK, 0, STACK
        LOCFRAME PSTACK, 0, STACK
        LOCFRAME XSTACK, 28, STACK
        LOCFRAME IOVERLAY, 0, STATIC
        LOCFRAME DOVERLAY, 0, STATIC
        ARGFRAME ISTACK, 0, STACK
        ARGFRAME PSTACK, 0, STACK
        ARGFRAME XSTACK, 28, STACK
        ARGFRAME IOVERLAY, 0, STATIC
        ARGFRAME DOVERLAY, 0, STATIC
        FUNCALL zcl_SendReadRsp, zclSerializeData
        LOCFRAME ISTACK, 0, STACK
        LOCFRAME PSTACK, 0, STACK
        LOCFRAME XSTACK, 24, STACK
        LOCFRAME IOVERLAY, 0, STATIC
        LOCFRAME DOVERLAY, 0, STATIC
        ARGFRAME ISTACK, 0, STACK
        ARGFRAME PSTACK, 0, STACK
        ARGFRAME XSTACK, 24, STACK
        ARGFRAME IOVERLAY, 0, STATIC
        ARGFRAME DOVERLAY, 0, STATIC
        FUNCALL zcl_SendReadRsp, zcl_SendCommand
        LOCFRAME ISTACK, 0, STACK
        LOCFRAME PSTACK, 0, STACK
        LOCFRAME XSTACK, 35, STACK
        LOCFRAME IOVERLAY, 0, STATIC
        LOCFRAME DOVERLAY, 0, STATIC
        ARGFRAME ISTACK, 0, STACK
        ARGFRAME PSTACK, 0, STACK
        ARGFRAME XSTACK, 35, STACK
        ARGFRAME IOVERLAY, 0, STATIC
        ARGFRAME DOVERLAY, 0, STATIC
        FUNCALL zcl_SendReadRsp, osal_mem_free
        LOCFRAME ISTACK, 0, STACK
        LOCFRAME PSTACK, 0, STACK
        LOCFRAME XSTACK, 24, STACK
        LOCFRAME IOVERLAY, 0, STATIC
        LOCFRAME DOVERLAY, 0, STATIC
        ARGFRAME ISTACK, 0, STACK
        ARGFRAME PSTACK, 0, STACK
        ARGFRAME XSTACK, 24, STACK
        ARGFRAME IOVERLAY, 0, STATIC
        ARGFRAME DOVERLAY, 0, STATIC
        REQUIRE ?V0
        REQUIRE ?V1
        REQUIRE ?V2
        REQUIRE ?V3
        REQUIRE ?V4
        REQUIRE ?V5
        REQUIRE ?V6
        REQUIRE ?V7
        REQUIRE ?V8
        REQUIRE ?V9
        REQUIRE ?V10
        REQUIRE ?V11
        REQUIRE ?V12
        REQUIRE ?V13
        MOV     A,#-0x16
        LCALL   ?BANKED_ENTER_XDATA
          CFI DPH0 load(1, XDATA, add(CFA_XSP16, literal(-1)))
          CFI DPL0 load(1, XDATA, add(CFA_XSP16, literal(-2)))
          CFI ?BRET_EXT load(1, XDATA, add(CFA_XSP16, literal(-3)))
          CFI ?RET_HIGH load(1, XDATA, add(CFA_XSP16, literal(-4)))
          CFI ?RET_LOW load(1, XDATA, add(CFA_XSP16, literal(-5)))
          CFI R7 load(1, XDATA, add(CFA_XSP16, literal(-6)))
          CFI V13 load(1, XDATA, add(CFA_XSP16, literal(-7)))
          CFI V12 load(1, XDATA, add(CFA_XSP16, literal(-8)))
          CFI V11 load(1, XDATA, add(CFA_XSP16, literal(-9)))
          CFI V10 load(1, XDATA, add(CFA_XSP16, literal(-10)))
          CFI V9 load(1, XDATA, add(CFA_XSP16, literal(-11)))
          CFI V8 load(1, XDATA, add(CFA_XSP16, literal(-12)))
          CFI V7 load(1, XDATA, add(CFA_XSP16, literal(-13)))
          CFI V6 load(1, XDATA, add(CFA_XSP16, literal(-14)))
          CFI V5 load(1, XDATA, add(CFA_XSP16, literal(-15)))
          CFI V4 load(1, XDATA, add(CFA_XSP16, literal(-16)))
          CFI V3 load(1, XDATA, add(CFA_XSP16, literal(-17)))
          CFI V2 load(1, XDATA, add(CFA_XSP16, literal(-18)))
          CFI V1 load(1, XDATA, add(CFA_XSP16, literal(-19)))
          CFI V0 load(1, XDATA, add(CFA_XSP16, literal(-20)))
          CFI VB load(1, XDATA, add(CFA_XSP16, literal(-21)))
          CFI R6 load(1, XDATA, add(CFA_XSP16, literal(-22)))
          CFI CFA_SP SP+0
          CFI CFA_XSP16 add(XSP16, 22)
        ; Saved register size: 22
        ; Auto size: 2
        MOV     A,#-0x2
        LCALL   ?ALLOC_XSTACK8
          CFI CFA_XSP16 add(XSP16, 24)
        MOV     ?V3,R1
        MOV     ?V12,R2
        MOV     ?V13,R3
        MOV     ?V6,R4
        MOV     ?V7,R5
// 1011   uint8 *buf;
// 1012   uint16 len = 0;
        MOV     R6,#0x0
        MOV     R7,#0x0
// 1013   ZStatus_t status;
// 1014   uint8 i;
// 1015 
// 1016   // calculate the size of the command
// 1017   for ( i = 0; i < readRspCmd->numAttr; i++ )
        MOV     ?V2,R6
        MOV     A,#0x18
        LCALL   ?XSTACK_DISP0_8
        LCALL   ??Subroutine207_0 & 0xFFFF
??CrossCallReturnLabel_474:
        SJMP    ??zcl_SendReadRsp_0
// 1018   {
// 1019     zclReadRspStatus_t *statusRec = &(readRspCmd->attrList[i]);
// 1020 
// 1021     len += 2 + 1; // Attribute ID + Status
// 1022 
// 1023     if ( statusRec->status == ZCL_STATUS_SUCCESS )
// 1024     {
// 1025       len++; // Attribute Data Type length
// 1026 
// 1027       // Attribute Data length
// 1028       if ( statusRec->data != NULL )
// 1029       {
// 1030         len += zclGetAttrDataLength( statusRec->dataType, statusRec->data );
// 1031       }
// 1032       else
// 1033       {
// 1034         len += zclGetAttrDataLengthUsingCB( srcEP, clusterID, statusRec->attrID );
??zcl_SendReadRsp_1:
        ; Setup parameters for call to function zclGetAttrDataLengthUsingCB
        LCALL   ?Subroutine87 & 0xFFFF
// 1035       }
??CrossCallReturnLabel_141:
        LCALL   ??zclGetAttrDataLengthUsingCB?relay; Banked call to: zclGetAttrDataLengthUsingCB
??zcl_SendReadRsp_2:
        MOV     ?V1,R3
        MOV     A,R6
        ADD     A,R2
        MOV     R6,A
        MOV     A,R7
        ADDC    A,?V1
        MOV     R7,A
??zcl_SendReadRsp_3:
        INC     ?V2
??zcl_SendReadRsp_0:
        MOV     DPL,?V8
        MOV     DPH,?V9
        LCALL   ??Subroutine205_0 & 0xFFFF
??CrossCallReturnLabel_453:
        JNC     ??zcl_SendReadRsp_4
        MOV     A,?V2
        MOV     B,#0x6
        LCALL   ?Subroutine118 & 0xFFFF
??CrossCallReturnLabel_207:
        ADD     A,#0x3
        MOV     R6,A
        CLR     A
        ADDC    A,R7
        MOV     R7,A
        INC     DPTR
        INC     DPTR
        MOVX    A,@DPTR
        JNZ     ??zcl_SendReadRsp_3
        INC     R6
        MOV     A,R6
        JNZ     ??zcl_SendReadRsp_5
        INC     R7
??zcl_SendReadRsp_5:
        MOV     DPL,R0
        MOV     DPH,R1
        INC     DPTR
        INC     DPTR
        INC     DPTR
        INC     DPTR
        LCALL   ??Subroutine167_0 & 0xFFFF
??CrossCallReturnLabel_278:
        MOV     DPL,R0
        MOV     DPH,R1
        JZ      ??zcl_SendReadRsp_1
        ; Setup parameters for call to function zclGetAttrDataLength
        INC     DPTR
        INC     DPTR
        INC     DPTR
        MOVX    A,@DPTR
        MOV     R1,A
        LCALL   ??zclGetAttrDataLength?relay; Banked call to: zclGetAttrDataLength
        SJMP    ??zcl_SendReadRsp_2
// 1036     }
// 1037   }
// 1038 
// 1039   buf = zcl_mem_alloc( len );
??zcl_SendReadRsp_4:
        ; Setup parameters for call to function osal_mem_alloc
        MOV     A,R6
        MOV     R2,A
        MOV     A,R7
        MOV     R3,A
        LCALL   ??osal_mem_alloc?relay; Banked call to: osal_mem_alloc
        MOV     ?V0,R2
        MOV     ?V1,R3
        MOV     ?V4,R2
        MOV     ?V5,R3
// 1040   if ( buf != NULL )
        MOV     A,R2
        ORL     A,?V5
        JNZ     $+5
        LJMP    ??zcl_SendReadRsp_6 & 0xFFFF
// 1041   {
// 1042     // Load the buffer - serially
// 1043     uint8 *pBuf = buf;
// 1044 
// 1045     for ( i = 0; i < readRspCmd->numAttr; i++ )
        MOV     ?V2,#0x0
        SJMP    ??zcl_SendReadRsp_7
// 1046     {
// 1047       zclReadRspStatus_t *statusRec = &(readRspCmd->attrList[i]);
// 1048 
// 1049       *pBuf++ = LO_UINT16( statusRec->attrID );
// 1050       *pBuf++ = HI_UINT16( statusRec->attrID );
// 1051       *pBuf++ = statusRec->status;
// 1052 
// 1053       if ( statusRec->status == ZCL_STATUS_SUCCESS )
// 1054       {
// 1055         *pBuf++ = statusRec->dataType;
// 1056 
// 1057         if ( statusRec->data != NULL )
// 1058         {
// 1059           // Copy attribute data to the buffer to be sent out
// 1060           pBuf = zclSerializeData( statusRec->dataType, statusRec->data, pBuf );
// 1061         }
// 1062         else
// 1063         {
// 1064           uint16 dataLen;
// 1065 
// 1066           // Read attribute data directly into the buffer to be sent out
// 1067           zclReadAttrDataUsingCB( srcEP, clusterID, statusRec->attrID, pBuf, &dataLen );
??zcl_SendReadRsp_8:
        ; Setup parameters for call to function zclReadAttrDataUsingCB
        MOV     R0,?XSP + 0
        MOV     R1,?XSP + 1
        MOV     ?V10,R0
        MOV     ?V11,R1
        MOV     R0,#?V10
        LCALL   ?PUSH_XSTACK_I_TWO
          CFI CFA_XSP16 add(XSP16, 26)
        MOV     R0,#?V0
        LCALL   ?PUSH_XSTACK_I_TWO
          CFI CFA_XSP16 add(XSP16, 28)
        MOV     DPL,R2
        MOV     DPH,R3
        LCALL   ?Subroutine87 & 0xFFFF
??CrossCallReturnLabel_142:
        LCALL   ??zclReadAttrDataUsingCB?relay; Banked call to: zclReadAttrDataUsingCB
        MOV     A,#0x4
        LCALL   ?DEALLOC_XSTACK8
          CFI CFA_XSP16 add(XSP16, 24)
// 1068           pBuf += dataLen;
        MOV     DPL,?XSP + 0
        MOV     DPH,?XSP + 1
        LCALL   ??Subroutine198_0 & 0xFFFF
// 1069         }
??CrossCallReturnLabel_404:
        MOV     A,?V0
        ADD     A,R0
        MOV     ?V0,A
        MOV     A,?V1
        ADDC    A,R1
        MOV     ?V1,A
??zcl_SendReadRsp_9:
        INC     ?V2
??zcl_SendReadRsp_7:
        MOV     DPL,?V8
        MOV     DPH,?V9
        LCALL   ??Subroutine205_0 & 0xFFFF
??CrossCallReturnLabel_454:
        JNC     ??zcl_SendReadRsp_10
        MOV     A,?V2
        MOV     B,#0x6
        MUL     AB
        MOV     R0,A
        MOV     R1,B
        MOV     A,?V8
        ADD     A,R0
        MOV     DPL,A
        MOV     A,?V9
        LCALL   ?Subroutine119 & 0xFFFF
??CrossCallReturnLabel_209:
        LCALL   ?Subroutine28 & 0xFFFF
??CrossCallReturnLabel_22:
        LCALL   ?Subroutine46 & 0xFFFF
??CrossCallReturnLabel_52:
        LCALL   ?Subroutine112 & 0xFFFF
??CrossCallReturnLabel_192:
        LCALL   ?Subroutine46 & 0xFFFF
??CrossCallReturnLabel_53:
        MOV     DPL,R0
        MOV     DPH,R1
        MOVX    A,@DPTR
        JNZ     ??zcl_SendReadRsp_9
        MOV     A,R2
        ADD     A,#0x3
        INC     R0
        CLR     A
        ADDC    A,R3
        MOV     R1,A
        MOV     DPL,R0
        MOV     DPH,R1
        LCALL   ?Subroutine28 & 0xFFFF
??CrossCallReturnLabel_23:
        LCALL   ??Subroutine212_0 & 0xFFFF
??CrossCallReturnLabel_499:
        MOV     DPL,R4
        MOV     DPH,R5
        MOV     A,DPL
        ORL     A,DPH
        JNZ     $+5
        LJMP    ??zcl_SendReadRsp_8 & 0xFFFF
        ; Setup parameters for call to function zclSerializeData
        MOV     R4,?V0
        MOV     R5,?V1
        MOV     R2,DPL
        MOV     R3,DPH
        MOV     DPL,R0
        MOV     DPH,R1
        MOVX    A,@DPTR
        MOV     R1,A
        LCALL   ??zclSerializeData?relay; Banked call to: zclSerializeData
        MOV     ?V0,R2
        MOV     ?V1,R3
        SJMP    ??zcl_SendReadRsp_9
// 1070       }
// 1071     } // for loop
// 1072 
// 1073     status = zcl_SendCommand( srcEP, dstAddr, clusterID, ZCL_CMD_READ_RSP, FALSE,
// 1074                               direction, disableDefaultRsp, 0, seqNum, len, buf );
??zcl_SendReadRsp_10:
        ; Setup parameters for call to function zcl_SendCommand
        MOV     R0,#?V4
        LCALL   ?PUSH_XSTACK_I_TWO
          CFI CFA_XSP16 add(XSP16, 26)
        MOV     ?V0,R6
        MOV     ?V1,R7
        MOV     R0,#?V0
        LCALL   ?PUSH_XSTACK_I_TWO
          CFI CFA_XSP16 add(XSP16, 28)
        MOV     A,#0x20
        LCALL   ?XSTACK_DISP0_8
        LCALL   ?Subroutine58 & 0xFFFF
??CrossCallReturnLabel_66:
        LCALL   ?PUSH_XSTACK_I_ONE
          CFI CFA_XSP16 add(XSP16, 29)
        CLR     A
        MOV     ?V0,A
        MOV     ?V1,A
        MOV     R0,#?V0
        LCALL   ?PUSH_XSTACK_I_TWO
          CFI CFA_XSP16 add(XSP16, 31)
        MOV     A,#0x22
        LCALL   ?XSTACK_DISP0_8
        LCALL   ?Subroutine58 & 0xFFFF
??CrossCallReturnLabel_67:
        LCALL   ?PUSH_XSTACK_I_ONE
          CFI CFA_XSP16 add(XSP16, 32)
        MOV     A,#0x22
        LCALL   ?XSTACK_DISP0_8
        LCALL   ?Subroutine58 & 0xFFFF
??CrossCallReturnLabel_68:
        LCALL   ?PUSH_XSTACK_I_ONE
          CFI CFA_XSP16 add(XSP16, 33)
        MOV     ?V0,#0x0
        MOV     R0,#?V0
        LCALL   ?PUSH_XSTACK_I_ONE
          CFI CFA_XSP16 add(XSP16, 34)
        MOV     ?V0,#0x1
        MOV     R0,#?V0
        LCALL   ?PUSH_XSTACK_I_ONE
          CFI CFA_XSP16 add(XSP16, 35)
        MOV     R4,?V6
        MOV     R5,?V7
        MOV     R2,?V12
        MOV     R3,?V13
        MOV     R1,?V3
        LCALL   ??zcl_SendCommand?relay; Banked call to: zcl_SendCommand
        MOV     A,#0xb
        LCALL   ?DEALLOC_XSTACK8
          CFI CFA_XSP16 add(XSP16, 24)
        MOV     A,R1
        MOV     R6,A
// 1075     zcl_mem_free( buf );
        ; Setup parameters for call to function osal_mem_free
        MOV     R2,?V4
        MOV     R3,?V5
        LCALL   ??osal_mem_free?relay; Banked call to: osal_mem_free
        SJMP    ??zcl_SendReadRsp_11
// 1076   }
// 1077   else
// 1078   {
// 1079     status = ZMemError;
??zcl_SendReadRsp_6:
        MOV     R6,#0x10
// 1080   }
// 1081 
// 1082   return ( status );
??zcl_SendReadRsp_11:
        MOV     A,R6
        MOV     R1,A
        MOV     A,#0x2
          CFI EndBlock cfiBlock56
        REQUIRE ?Subroutine11
        ; // Fall through to label ?Subroutine11
// 1083 }

        RSEG BANKED_CODE:CODE:NOROOT(0)
?Subroutine11:
          CFI Block cfiBlock57 Using cfiCommon0
          CFI NoFunction
          CFI CFA_SP SP+0
          CFI CFA_XSP16 add(XSP16, 24)
          CFI VB load(1, XDATA, add(CFA_XSP16, literal(-21)))
          CFI DPL0 load(1, XDATA, add(CFA_XSP16, literal(-2)))
          CFI DPH0 load(1, XDATA, add(CFA_XSP16, literal(-1)))
          CFI R6 load(1, XDATA, add(CFA_XSP16, literal(-22)))
          CFI R7 load(1, XDATA, add(CFA_XSP16, literal(-6)))
          CFI V0 load(1, XDATA, add(CFA_XSP16, literal(-20)))
          CFI V1 load(1, XDATA, add(CFA_XSP16, literal(-19)))
          CFI V2 load(1, XDATA, add(CFA_XSP16, literal(-18)))
          CFI V3 load(1, XDATA, add(CFA_XSP16, literal(-17)))
          CFI V4 load(1, XDATA, add(CFA_XSP16, literal(-16)))
          CFI V5 load(1, XDATA, add(CFA_XSP16, literal(-15)))
          CFI V6 load(1, XDATA, add(CFA_XSP16, literal(-14)))
          CFI V7 load(1, XDATA, add(CFA_XSP16, literal(-13)))
          CFI V8 load(1, XDATA, add(CFA_XSP16, literal(-12)))
          CFI V9 load(1, XDATA, add(CFA_XSP16, literal(-11)))
          CFI V10 load(1, XDATA, add(CFA_XSP16, literal(-10)))
          CFI V11 load(1, XDATA, add(CFA_XSP16, literal(-9)))
          CFI V12 load(1, XDATA, add(CFA_XSP16, literal(-8)))
          CFI V13 load(1, XDATA, add(CFA_XSP16, literal(-7)))
          CFI ?BRET_EXT load(1, XDATA, add(CFA_XSP16, literal(-3)))
          CFI ?RET_HIGH load(1, XDATA, add(CFA_XSP16, literal(-4)))
          CFI ?RET_LOW load(1, XDATA, add(CFA_XSP16, literal(-5)))
          CFI Invalid
        LCALL   ?DEALLOC_XSTACK8
          CFI CFA_XSP16 add(XSP16, 22)
          CFI Valid
        LJMP    ??Subroutine199_0 & 0xFFFF
          CFI EndBlock cfiBlock57

        RSEG BANKED_CODE:CODE:NOROOT(0)
?Subroutine87:
          CFI Block cfiCond58 Using cfiCommon0
          CFI Function zcl_SendReadRsp
          CFI Conditional ??CrossCallReturnLabel_141
          CFI R6 load(1, XDATA, add(CFA_XSP16, literal(-22)))
          CFI VB load(1, XDATA, add(CFA_XSP16, literal(-21)))
          CFI V0 load(1, XDATA, add(CFA_XSP16, literal(-20)))
          CFI V1 load(1, XDATA, add(CFA_XSP16, literal(-19)))
          CFI V2 load(1, XDATA, add(CFA_XSP16, literal(-18)))
          CFI V3 load(1, XDATA, add(CFA_XSP16, literal(-17)))
          CFI V4 load(1, XDATA, add(CFA_XSP16, literal(-16)))
          CFI V5 load(1, XDATA, add(CFA_XSP16, literal(-15)))
          CFI V6 load(1, XDATA, add(CFA_XSP16, literal(-14)))
          CFI V7 load(1, XDATA, add(CFA_XSP16, literal(-13)))
          CFI V8 load(1, XDATA, add(CFA_XSP16, literal(-12)))
          CFI V9 load(1, XDATA, add(CFA_XSP16, literal(-11)))
          CFI V10 load(1, XDATA, add(CFA_XSP16, literal(-10)))
          CFI V11 load(1, XDATA, add(CFA_XSP16, literal(-9)))
          CFI V12 load(1, XDATA, add(CFA_XSP16, literal(-8)))
          CFI V13 load(1, XDATA, add(CFA_XSP16, literal(-7)))
          CFI R7 load(1, XDATA, add(CFA_XSP16, literal(-6)))
          CFI ?RET_LOW load(1, XDATA, add(CFA_XSP16, literal(-5)))
          CFI ?RET_HIGH load(1, XDATA, add(CFA_XSP16, literal(-4)))
          CFI ?BRET_EXT load(1, XDATA, add(CFA_XSP16, literal(-3)))
          CFI DPL0 load(1, XDATA, add(CFA_XSP16, literal(-2)))
          CFI DPH0 load(1, XDATA, add(CFA_XSP16, literal(-1)))
          CFI CFA_SP SP+-2
          CFI CFA_XSP16 add(XSP16, 24)
          CFI Block cfiCond59 Using cfiCommon0
          CFI (cfiCond59) Function zcl_SendReadRsp
          CFI (cfiCond59) Conditional ??CrossCallReturnLabel_142
          CFI (cfiCond59) R6 load(1, XDATA, add(CFA_XSP16, literal(-22)))
          CFI (cfiCond59) VB load(1, XDATA, add(CFA_XSP16, literal(-21)))
          CFI (cfiCond59) V0 load(1, XDATA, add(CFA_XSP16, literal(-20)))
          CFI (cfiCond59) V1 load(1, XDATA, add(CFA_XSP16, literal(-19)))
          CFI (cfiCond59) V2 load(1, XDATA, add(CFA_XSP16, literal(-18)))
          CFI (cfiCond59) V3 load(1, XDATA, add(CFA_XSP16, literal(-17)))
          CFI (cfiCond59) V4 load(1, XDATA, add(CFA_XSP16, literal(-16)))
          CFI (cfiCond59) V5 load(1, XDATA, add(CFA_XSP16, literal(-15)))
          CFI (cfiCond59) V6 load(1, XDATA, add(CFA_XSP16, literal(-14)))
          CFI (cfiCond59) V7 load(1, XDATA, add(CFA_XSP16, literal(-13)))
          CFI (cfiCond59) V8 load(1, XDATA, add(CFA_XSP16, literal(-12)))
          CFI (cfiCond59) V9 load(1, XDATA, add(CFA_XSP16, literal(-11)))
          CFI (cfiCond59) V10 load(1, XDATA, add(CFA_XSP16, literal(-10)))
          CFI (cfiCond59) V11 load(1, XDATA, add(CFA_XSP16, literal(-9)))
          CFI (cfiCond59) V12 load(1, XDATA, add(CFA_XSP16, literal(-8)))
          CFI (cfiCond59) V13 load(1, XDATA, add(CFA_XSP16, literal(-7)))
          CFI (cfiCond59) R7 load(1, XDATA, add(CFA_XSP16, literal(-6)))
          CFI (cfiCond59) ?RET_LOW load(1, XDATA, add(CFA_XSP16, literal(-5)))
          CFI (cfiCond59) ?RET_HIGH load(1, XDATA, add(CFA_XSP16, literal(-4)))
          CFI (cfiCond59) ?BRET_EXT load(1, XDATA, add(CFA_XSP16, literal(-3)))
          CFI (cfiCond59) DPL0 load(1, XDATA, add(CFA_XSP16, literal(-2)))
          CFI (cfiCond59) DPH0 load(1, XDATA, add(CFA_XSP16, literal(-1)))
          CFI (cfiCond59) CFA_SP SP+-2
          CFI (cfiCond59) CFA_XSP16 add(XSP16, 28)
          CFI Block cfiPicker60 Using cfiCommon1
          CFI (cfiPicker60) NoFunction
          CFI (cfiPicker60) Picker
        LCALL   ??Subroutine217_0 & 0xFFFF
??CrossCallReturnLabel_510:
        MOV     R2,?V6
        MOV     R3,?V7
        MOV     R1,?V3
        RET
          CFI EndBlock cfiCond58
          CFI EndBlock cfiCond59
          CFI EndBlock cfiPicker60

        RSEG BANKED_CODE:CODE:NOROOT(0)
?Subroutine51:
          CFI Block cfiCond61 Using cfiCommon0
          CFI Function zcl_registerPlugin
          CFI Conditional ??CrossCallReturnLabel_271
          CFI R6 load(1, XDATA, add(CFA_XSP16, literal(-12)))
          CFI VB load(1, XDATA, add(CFA_XSP16, literal(-11)))
          CFI V0 load(1, XDATA, add(CFA_XSP16, literal(-10)))
          CFI V1 load(1, XDATA, add(CFA_XSP16, literal(-9)))
          CFI V2 load(1, XDATA, add(CFA_XSP16, literal(-8)))
          CFI V3 load(1, XDATA, add(CFA_XSP16, literal(-7)))
          CFI R7 load(1, XDATA, add(CFA_XSP16, literal(-6)))
          CFI ?RET_LOW load(1, XDATA, add(CFA_XSP16, literal(-5)))
          CFI ?RET_HIGH load(1, XDATA, add(CFA_XSP16, literal(-4)))
          CFI ?BRET_EXT load(1, XDATA, add(CFA_XSP16, literal(-3)))
          CFI DPL0 load(1, XDATA, add(CFA_XSP16, literal(-2)))
          CFI DPH0 load(1, XDATA, add(CFA_XSP16, literal(-1)))
          CFI CFA_SP SP+-2
          CFI CFA_XSP16 add(XSP16, 12)
          CFI Block cfiCond62 Using cfiCommon0
          CFI (cfiCond62) Function zcl_registerAttrList
          CFI (cfiCond62) Conditional ??CrossCallReturnLabel_272
          CFI (cfiCond62) R6 load(1, XDATA, add(CFA_XSP16, literal(-12)))
          CFI (cfiCond62) VB load(1, XDATA, add(CFA_XSP16, literal(-11)))
          CFI (cfiCond62) V0 load(1, XDATA, add(CFA_XSP16, literal(-10)))
          CFI (cfiCond62) V1 load(1, XDATA, add(CFA_XSP16, literal(-9)))
          CFI (cfiCond62) V2 load(1, XDATA, add(CFA_XSP16, literal(-8)))
          CFI (cfiCond62) V3 load(1, XDATA, add(CFA_XSP16, literal(-7)))
          CFI (cfiCond62) R7 load(1, XDATA, add(CFA_XSP16, literal(-6)))
          CFI (cfiCond62) ?RET_LOW load(1, XDATA, add(CFA_XSP16, literal(-5)))
          CFI (cfiCond62) ?RET_HIGH load(1, XDATA, add(CFA_XSP16, literal(-4)))
          CFI (cfiCond62) ?BRET_EXT load(1, XDATA, add(CFA_XSP16, literal(-3)))
          CFI (cfiCond62) DPL0 load(1, XDATA, add(CFA_XSP16, literal(-2)))
          CFI (cfiCond62) DPH0 load(1, XDATA, add(CFA_XSP16, literal(-1)))
          CFI (cfiCond62) CFA_SP SP+-2
          CFI (cfiCond62) CFA_XSP16 add(XSP16, 12)
          CFI Block cfiCond63 Using cfiCommon0
          CFI (cfiCond63) Function zcl_registerClusterOptionList
          CFI (cfiCond63) Conditional ??CrossCallReturnLabel_273
          CFI (cfiCond63) R6 load(1, XDATA, add(CFA_XSP16, literal(-12)))
          CFI (cfiCond63) VB load(1, XDATA, add(CFA_XSP16, literal(-11)))
          CFI (cfiCond63) V0 load(1, XDATA, add(CFA_XSP16, literal(-10)))
          CFI (cfiCond63) V1 load(1, XDATA, add(CFA_XSP16, literal(-9)))
          CFI (cfiCond63) V2 load(1, XDATA, add(CFA_XSP16, literal(-8)))
          CFI (cfiCond63) V3 load(1, XDATA, add(CFA_XSP16, literal(-7)))
          CFI (cfiCond63) R7 load(1, XDATA, add(CFA_XSP16, literal(-6)))
          CFI (cfiCond63) ?RET_LOW load(1, XDATA, add(CFA_XSP16, literal(-5)))
          CFI (cfiCond63) ?RET_HIGH load(1, XDATA, add(CFA_XSP16, literal(-4)))
          CFI (cfiCond63) ?BRET_EXT load(1, XDATA, add(CFA_XSP16, literal(-3)))
          CFI (cfiCond63) DPL0 load(1, XDATA, add(CFA_XSP16, literal(-2)))
          CFI (cfiCond63) DPH0 load(1, XDATA, add(CFA_XSP16, literal(-1)))
          CFI (cfiCond63) CFA_SP SP+-2
          CFI (cfiCond63) CFA_XSP16 add(XSP16, 12)
          CFI Block cfiPicker64 Using cfiCommon1
          CFI (cfiPicker64) NoFunction
          CFI (cfiPicker64) Picker
        MOV     R5,A
        MOV     DPL,R4
        MOV     DPH,R5
          CFI EndBlock cfiCond61
          CFI EndBlock cfiCond62
          CFI EndBlock cfiCond63
          CFI EndBlock cfiPicker64
        REQUIRE ??Subroutine167_0
        ; // Fall through to label ??Subroutine167_0

        RSEG BANKED_CODE:CODE:NOROOT(0)
??Subroutine167_0:
          CFI Block cfiCond65 Using cfiCommon0
          CFI Function zcl_registerPlugin
          CFI Conditional ??CrossCallReturnLabel_275
          CFI R6 load(1, XDATA, add(CFA_XSP16, literal(-12)))
          CFI VB load(1, XDATA, add(CFA_XSP16, literal(-11)))
          CFI V0 load(1, XDATA, add(CFA_XSP16, literal(-10)))
          CFI V1 load(1, XDATA, add(CFA_XSP16, literal(-9)))
          CFI V2 load(1, XDATA, add(CFA_XSP16, literal(-8)))
          CFI V3 load(1, XDATA, add(CFA_XSP16, literal(-7)))
          CFI R7 load(1, XDATA, add(CFA_XSP16, literal(-6)))
          CFI ?RET_LOW load(1, XDATA, add(CFA_XSP16, literal(-5)))
          CFI ?RET_HIGH load(1, XDATA, add(CFA_XSP16, literal(-4)))
          CFI ?BRET_EXT load(1, XDATA, add(CFA_XSP16, literal(-3)))
          CFI DPL0 load(1, XDATA, add(CFA_XSP16, literal(-2)))
          CFI DPH0 load(1, XDATA, add(CFA_XSP16, literal(-1)))
          CFI CFA_SP SP+-2
          CFI CFA_XSP16 add(XSP16, 12)
          CFI Block cfiCond66 Using cfiCommon0
          CFI (cfiCond66) Function zcl_registerAttrList
          CFI (cfiCond66) Conditional ??CrossCallReturnLabel_276
          CFI (cfiCond66) R6 load(1, XDATA, add(CFA_XSP16, literal(-12)))
          CFI (cfiCond66) VB load(1, XDATA, add(CFA_XSP16, literal(-11)))
          CFI (cfiCond66) V0 load(1, XDATA, add(CFA_XSP16, literal(-10)))
          CFI (cfiCond66) V1 load(1, XDATA, add(CFA_XSP16, literal(-9)))
          CFI (cfiCond66) V2 load(1, XDATA, add(CFA_XSP16, literal(-8)))
          CFI (cfiCond66) V3 load(1, XDATA, add(CFA_XSP16, literal(-7)))
          CFI (cfiCond66) R7 load(1, XDATA, add(CFA_XSP16, literal(-6)))
          CFI (cfiCond66) ?RET_LOW load(1, XDATA, add(CFA_XSP16, literal(-5)))
          CFI (cfiCond66) ?RET_HIGH load(1, XDATA, add(CFA_XSP16, literal(-4)))
          CFI (cfiCond66) ?BRET_EXT load(1, XDATA, add(CFA_XSP16, literal(-3)))
          CFI (cfiCond66) DPL0 load(1, XDATA, add(CFA_XSP16, literal(-2)))
          CFI (cfiCond66) DPH0 load(1, XDATA, add(CFA_XSP16, literal(-1)))
          CFI (cfiCond66) CFA_SP SP+-2
          CFI (cfiCond66) CFA_XSP16 add(XSP16, 12)
          CFI Block cfiCond67 Using cfiCommon0
          CFI (cfiCond67) Function zcl_registerClusterOptionList
          CFI (cfiCond67) Conditional ??CrossCallReturnLabel_277
          CFI (cfiCond67) R6 load(1, XDATA, add(CFA_XSP16, literal(-12)))
          CFI (cfiCond67) VB load(1, XDATA, add(CFA_XSP16, literal(-11)))
          CFI (cfiCond67) V0 load(1, XDATA, add(CFA_XSP16, literal(-10)))
          CFI (cfiCond67) V1 load(1, XDATA, add(CFA_XSP16, literal(-9)))
          CFI (cfiCond67) V2 load(1, XDATA, add(CFA_XSP16, literal(-8)))
          CFI (cfiCond67) V3 load(1, XDATA, add(CFA_XSP16, literal(-7)))
          CFI (cfiCond67) R7 load(1, XDATA, add(CFA_XSP16, literal(-6)))
          CFI (cfiCond67) ?RET_LOW load(1, XDATA, add(CFA_XSP16, literal(-5)))
          CFI (cfiCond67) ?RET_HIGH load(1, XDATA, add(CFA_XSP16, literal(-4)))
          CFI (cfiCond67) ?BRET_EXT load(1, XDATA, add(CFA_XSP16, literal(-3)))
          CFI (cfiCond67) DPL0 load(1, XDATA, add(CFA_XSP16, literal(-2)))
          CFI (cfiCond67) DPH0 load(1, XDATA, add(CFA_XSP16, literal(-1)))
          CFI (cfiCond67) CFA_SP SP+-2
          CFI (cfiCond67) CFA_XSP16 add(XSP16, 12)
          CFI Block cfiCond68 Using cfiCommon0
          CFI (cfiCond68) Function zcl_SendReadRsp
          CFI (cfiCond68) Conditional ??CrossCallReturnLabel_278
          CFI (cfiCond68) R6 load(1, XDATA, add(CFA_XSP16, literal(-22)))
          CFI (cfiCond68) VB load(1, XDATA, add(CFA_XSP16, literal(-21)))
          CFI (cfiCond68) V0 load(1, XDATA, add(CFA_XSP16, literal(-20)))
          CFI (cfiCond68) V1 load(1, XDATA, add(CFA_XSP16, literal(-19)))
          CFI (cfiCond68) V2 load(1, XDATA, add(CFA_XSP16, literal(-18)))
          CFI (cfiCond68) V3 load(1, XDATA, add(CFA_XSP16, literal(-17)))
          CFI (cfiCond68) V4 load(1, XDATA, add(CFA_XSP16, literal(-16)))
          CFI (cfiCond68) V5 load(1, XDATA, add(CFA_XSP16, literal(-15)))
          CFI (cfiCond68) V6 load(1, XDATA, add(CFA_XSP16, literal(-14)))
          CFI (cfiCond68) V7 load(1, XDATA, add(CFA_XSP16, literal(-13)))
          CFI (cfiCond68) V8 load(1, XDATA, add(CFA_XSP16, literal(-12)))
          CFI (cfiCond68) V9 load(1, XDATA, add(CFA_XSP16, literal(-11)))
          CFI (cfiCond68) V10 load(1, XDATA, add(CFA_XSP16, literal(-10)))
          CFI (cfiCond68) V11 load(1, XDATA, add(CFA_XSP16, literal(-9)))
          CFI (cfiCond68) V12 load(1, XDATA, add(CFA_XSP16, literal(-8)))
          CFI (cfiCond68) V13 load(1, XDATA, add(CFA_XSP16, literal(-7)))
          CFI (cfiCond68) R7 load(1, XDATA, add(CFA_XSP16, literal(-6)))
          CFI (cfiCond68) ?RET_LOW load(1, XDATA, add(CFA_XSP16, literal(-5)))
          CFI (cfiCond68) ?RET_HIGH load(1, XDATA, add(CFA_XSP16, literal(-4)))
          CFI (cfiCond68) ?BRET_EXT load(1, XDATA, add(CFA_XSP16, literal(-3)))
          CFI (cfiCond68) DPL0 load(1, XDATA, add(CFA_XSP16, literal(-2)))
          CFI (cfiCond68) DPH0 load(1, XDATA, add(CFA_XSP16, literal(-1)))
          CFI (cfiCond68) CFA_SP SP+-2
          CFI (cfiCond68) CFA_XSP16 add(XSP16, 24)
          CFI Block cfiCond69 Using cfiCommon0
          CFI (cfiCond69) Function zclFindAttrRecsList
          CFI (cfiCond69) Conditional ??CrossCallReturnLabel_274
          CFI (cfiCond69) DPL0 Frame(CFA_SP, 4)
          CFI (cfiCond69) DPH0 Frame(CFA_SP, 5)
          CFI (cfiCond69) CFA_SP SP+-7
          CFI Block cfiCond70 Using cfiCommon0
          CFI (cfiCond70) Function zclReadAttrData
          CFI (cfiCond70) Conditional ??CrossCallReturnLabel_279
          CFI (cfiCond70) R6 load(1, XDATA, add(CFA_XSP16, literal(-15)))
          CFI (cfiCond70) VB load(1, XDATA, add(CFA_XSP16, literal(-14)))
          CFI (cfiCond70) V0 load(1, XDATA, add(CFA_XSP16, literal(-13)))
          CFI (cfiCond70) V1 load(1, XDATA, add(CFA_XSP16, literal(-12)))
          CFI (cfiCond70) V2 load(1, XDATA, add(CFA_XSP16, literal(-11)))
          CFI (cfiCond70) V3 load(1, XDATA, add(CFA_XSP16, literal(-10)))
          CFI (cfiCond70) V4 load(1, XDATA, add(CFA_XSP16, literal(-9)))
          CFI (cfiCond70) V5 load(1, XDATA, add(CFA_XSP16, literal(-8)))
          CFI (cfiCond70) V6 load(1, XDATA, add(CFA_XSP16, literal(-7)))
          CFI (cfiCond70) R7 load(1, XDATA, add(CFA_XSP16, literal(-6)))
          CFI (cfiCond70) ?RET_LOW load(1, XDATA, add(CFA_XSP16, literal(-5)))
          CFI (cfiCond70) ?RET_HIGH load(1, XDATA, add(CFA_XSP16, literal(-4)))
          CFI (cfiCond70) ?BRET_EXT load(1, XDATA, add(CFA_XSP16, literal(-3)))
          CFI (cfiCond70) DPL0 load(1, XDATA, add(CFA_XSP16, literal(-2)))
          CFI (cfiCond70) DPH0 load(1, XDATA, add(CFA_XSP16, literal(-1)))
          CFI (cfiCond70) CFA_SP SP+-2
          CFI (cfiCond70) CFA_XSP16 add(XSP16, 15)
          CFI Block cfiCond71 Using cfiCommon0
          CFI (cfiCond71) Function zclProcessInWriteUndividedCmd
          CFI (cfiCond71) Conditional ??CrossCallReturnLabel_280
          CFI (cfiCond71) R6 load(1, XDATA, add(CFA_XSP16, literal(-24)))
          CFI (cfiCond71) VB load(1, XDATA, add(CFA_XSP16, literal(-23)))
          CFI (cfiCond71) V0 load(1, XDATA, add(CFA_XSP16, literal(-22)))
          CFI (cfiCond71) V1 load(1, XDATA, add(CFA_XSP16, literal(-21)))
          CFI (cfiCond71) V2 load(1, XDATA, add(CFA_XSP16, literal(-20)))
          CFI (cfiCond71) V3 load(1, XDATA, add(CFA_XSP16, literal(-19)))
          CFI (cfiCond71) V4 load(1, XDATA, add(CFA_XSP16, literal(-18)))
          CFI (cfiCond71) V5 load(1, XDATA, add(CFA_XSP16, literal(-17)))
          CFI (cfiCond71) V6 load(1, XDATA, add(CFA_XSP16, literal(-16)))
          CFI (cfiCond71) V7 load(1, XDATA, add(CFA_XSP16, literal(-15)))
          CFI (cfiCond71) V8 load(1, XDATA, add(CFA_XSP16, literal(-14)))
          CFI (cfiCond71) V9 load(1, XDATA, add(CFA_XSP16, literal(-13)))
          CFI (cfiCond71) V10 load(1, XDATA, add(CFA_XSP16, literal(-12)))
          CFI (cfiCond71) V11 load(1, XDATA, add(CFA_XSP16, literal(-11)))
          CFI (cfiCond71) V12 load(1, XDATA, add(CFA_XSP16, literal(-10)))
          CFI (cfiCond71) V13 load(1, XDATA, add(CFA_XSP16, literal(-9)))
          CFI (cfiCond71) V14 load(1, XDATA, add(CFA_XSP16, literal(-8)))
          CFI (cfiCond71) V15 load(1, XDATA, add(CFA_XSP16, literal(-7)))
          CFI (cfiCond71) R7 load(1, XDATA, add(CFA_XSP16, literal(-6)))
          CFI (cfiCond71) ?RET_LOW load(1, XDATA, add(CFA_XSP16, literal(-5)))
          CFI (cfiCond71) ?RET_HIGH load(1, XDATA, add(CFA_XSP16, literal(-4)))
          CFI (cfiCond71) ?BRET_EXT load(1, XDATA, add(CFA_XSP16, literal(-3)))
          CFI (cfiCond71) DPL0 load(1, XDATA, add(CFA_XSP16, literal(-2)))
          CFI (cfiCond71) DPH0 load(1, XDATA, add(CFA_XSP16, literal(-1)))
          CFI (cfiCond71) CFA_SP SP+-2
          CFI (cfiCond71) CFA_XSP16 add(XSP16, 38)
          CFI Block cfiCond72 Using cfiCommon0
          CFI (cfiCond72) Function zcl_registerPlugin
          CFI (cfiCond72) Conditional ??CrossCallReturnLabel_271
          CFI (cfiCond72) R6 load(1, XDATA, add(CFA_XSP16, literal(-12)))
          CFI (cfiCond72) VB load(1, XDATA, add(CFA_XSP16, literal(-11)))
          CFI (cfiCond72) V0 load(1, XDATA, add(CFA_XSP16, literal(-10)))
          CFI (cfiCond72) V1 load(1, XDATA, add(CFA_XSP16, literal(-9)))
          CFI (cfiCond72) V2 load(1, XDATA, add(CFA_XSP16, literal(-8)))
          CFI (cfiCond72) V3 load(1, XDATA, add(CFA_XSP16, literal(-7)))
          CFI (cfiCond72) R7 load(1, XDATA, add(CFA_XSP16, literal(-6)))
          CFI (cfiCond72) ?RET_LOW load(1, XDATA, add(CFA_XSP16, literal(-5)))
          CFI (cfiCond72) ?RET_HIGH load(1, XDATA, add(CFA_XSP16, literal(-4)))
          CFI (cfiCond72) ?BRET_EXT load(1, XDATA, add(CFA_XSP16, literal(-3)))
          CFI (cfiCond72) DPL0 load(1, XDATA, add(CFA_XSP16, literal(-2)))
          CFI (cfiCond72) DPH0 load(1, XDATA, add(CFA_XSP16, literal(-1)))
          CFI (cfiCond72) CFA_SP SP+-2
          CFI (cfiCond72) CFA_XSP16 add(XSP16, 12)
          CFI Block cfiCond73 Using cfiCommon0
          CFI (cfiCond73) Function zcl_registerAttrList
          CFI (cfiCond73) Conditional ??CrossCallReturnLabel_272
          CFI (cfiCond73) R6 load(1, XDATA, add(CFA_XSP16, literal(-12)))
          CFI (cfiCond73) VB load(1, XDATA, add(CFA_XSP16, literal(-11)))
          CFI (cfiCond73) V0 load(1, XDATA, add(CFA_XSP16, literal(-10)))
          CFI (cfiCond73) V1 load(1, XDATA, add(CFA_XSP16, literal(-9)))
          CFI (cfiCond73) V2 load(1, XDATA, add(CFA_XSP16, literal(-8)))
          CFI (cfiCond73) V3 load(1, XDATA, add(CFA_XSP16, literal(-7)))
          CFI (cfiCond73) R7 load(1, XDATA, add(CFA_XSP16, literal(-6)))
          CFI (cfiCond73) ?RET_LOW load(1, XDATA, add(CFA_XSP16, literal(-5)))
          CFI (cfiCond73) ?RET_HIGH load(1, XDATA, add(CFA_XSP16, literal(-4)))
          CFI (cfiCond73) ?BRET_EXT load(1, XDATA, add(CFA_XSP16, literal(-3)))
          CFI (cfiCond73) DPL0 load(1, XDATA, add(CFA_XSP16, literal(-2)))
          CFI (cfiCond73) DPH0 load(1, XDATA, add(CFA_XSP16, literal(-1)))
          CFI (cfiCond73) CFA_SP SP+-2
          CFI (cfiCond73) CFA_XSP16 add(XSP16, 12)
          CFI Block cfiCond74 Using cfiCommon0
          CFI (cfiCond74) Function zcl_registerClusterOptionList
          CFI (cfiCond74) Conditional ??CrossCallReturnLabel_273
          CFI (cfiCond74) R6 load(1, XDATA, add(CFA_XSP16, literal(-12)))
          CFI (cfiCond74) VB load(1, XDATA, add(CFA_XSP16, literal(-11)))
          CFI (cfiCond74) V0 load(1, XDATA, add(CFA_XSP16, literal(-10)))
          CFI (cfiCond74) V1 load(1, XDATA, add(CFA_XSP16, literal(-9)))
          CFI (cfiCond74) V2 load(1, XDATA, add(CFA_XSP16, literal(-8)))
          CFI (cfiCond74) V3 load(1, XDATA, add(CFA_XSP16, literal(-7)))
          CFI (cfiCond74) R7 load(1, XDATA, add(CFA_XSP16, literal(-6)))
          CFI (cfiCond74) ?RET_LOW load(1, XDATA, add(CFA_XSP16, literal(-5)))
          CFI (cfiCond74) ?RET_HIGH load(1, XDATA, add(CFA_XSP16, literal(-4)))
          CFI (cfiCond74) ?BRET_EXT load(1, XDATA, add(CFA_XSP16, literal(-3)))
          CFI (cfiCond74) DPL0 load(1, XDATA, add(CFA_XSP16, literal(-2)))
          CFI (cfiCond74) DPH0 load(1, XDATA, add(CFA_XSP16, literal(-1)))
          CFI (cfiCond74) CFA_SP SP+-2
          CFI (cfiCond74) CFA_XSP16 add(XSP16, 12)
          CFI Block cfiPicker75 Using cfiCommon1
          CFI (cfiPicker75) NoFunction
          CFI (cfiPicker75) Picker
        LCALL   ??Subroutine186_0 & 0xFFFF
??CrossCallReturnLabel_356:
        MOV     A,R2
        ORL     A,R3
        RET
          CFI EndBlock cfiCond65
          CFI EndBlock cfiCond66
          CFI EndBlock cfiCond67
          CFI EndBlock cfiCond68
          CFI EndBlock cfiCond69
          CFI EndBlock cfiCond70
          CFI EndBlock cfiCond71
          CFI EndBlock cfiCond72
          CFI EndBlock cfiCond73
          CFI EndBlock cfiCond74
          CFI EndBlock cfiPicker75

        RSEG BANKED_CODE:CODE:NOROOT(0)
?Subroutine46:
          CFI Block cfiCond76 Using cfiCommon0
          CFI Function zcl_SendReadRsp
          CFI Conditional ??CrossCallReturnLabel_52
          CFI R6 load(1, XDATA, add(CFA_XSP16, literal(-22)))
          CFI VB load(1, XDATA, add(CFA_XSP16, literal(-21)))
          CFI V0 load(1, XDATA, add(CFA_XSP16, literal(-20)))
          CFI V1 load(1, XDATA, add(CFA_XSP16, literal(-19)))
          CFI V2 load(1, XDATA, add(CFA_XSP16, literal(-18)))
          CFI V3 load(1, XDATA, add(CFA_XSP16, literal(-17)))
          CFI V4 load(1, XDATA, add(CFA_XSP16, literal(-16)))
          CFI V5 load(1, XDATA, add(CFA_XSP16, literal(-15)))
          CFI V6 load(1, XDATA, add(CFA_XSP16, literal(-14)))
          CFI V7 load(1, XDATA, add(CFA_XSP16, literal(-13)))
          CFI V8 load(1, XDATA, add(CFA_XSP16, literal(-12)))
          CFI V9 load(1, XDATA, add(CFA_XSP16, literal(-11)))
          CFI V10 load(1, XDATA, add(CFA_XSP16, literal(-10)))
          CFI V11 load(1, XDATA, add(CFA_XSP16, literal(-9)))
          CFI V12 load(1, XDATA, add(CFA_XSP16, literal(-8)))
          CFI V13 load(1, XDATA, add(CFA_XSP16, literal(-7)))
          CFI R7 load(1, XDATA, add(CFA_XSP16, literal(-6)))
          CFI ?RET_LOW load(1, XDATA, add(CFA_XSP16, literal(-5)))
          CFI ?RET_HIGH load(1, XDATA, add(CFA_XSP16, literal(-4)))
          CFI ?BRET_EXT load(1, XDATA, add(CFA_XSP16, literal(-3)))
          CFI DPL0 load(1, XDATA, add(CFA_XSP16, literal(-2)))
          CFI DPH0 load(1, XDATA, add(CFA_XSP16, literal(-1)))
          CFI CFA_SP SP+-2
          CFI CFA_XSP16 add(XSP16, 24)
          CFI Block cfiCond77 Using cfiCommon0
          CFI (cfiCond77) Function zcl_SendReadRsp
          CFI (cfiCond77) Conditional ??CrossCallReturnLabel_53
          CFI (cfiCond77) R6 load(1, XDATA, add(CFA_XSP16, literal(-22)))
          CFI (cfiCond77) VB load(1, XDATA, add(CFA_XSP16, literal(-21)))
          CFI (cfiCond77) V0 load(1, XDATA, add(CFA_XSP16, literal(-20)))
          CFI (cfiCond77) V1 load(1, XDATA, add(CFA_XSP16, literal(-19)))
          CFI (cfiCond77) V2 load(1, XDATA, add(CFA_XSP16, literal(-18)))
          CFI (cfiCond77) V3 load(1, XDATA, add(CFA_XSP16, literal(-17)))
          CFI (cfiCond77) V4 load(1, XDATA, add(CFA_XSP16, literal(-16)))
          CFI (cfiCond77) V5 load(1, XDATA, add(CFA_XSP16, literal(-15)))
          CFI (cfiCond77) V6 load(1, XDATA, add(CFA_XSP16, literal(-14)))
          CFI (cfiCond77) V7 load(1, XDATA, add(CFA_XSP16, literal(-13)))
          CFI (cfiCond77) V8 load(1, XDATA, add(CFA_XSP16, literal(-12)))
          CFI (cfiCond77) V9 load(1, XDATA, add(CFA_XSP16, literal(-11)))
          CFI (cfiCond77) V10 load(1, XDATA, add(CFA_XSP16, literal(-10)))
          CFI (cfiCond77) V11 load(1, XDATA, add(CFA_XSP16, literal(-9)))
          CFI (cfiCond77) V12 load(1, XDATA, add(CFA_XSP16, literal(-8)))
          CFI (cfiCond77) V13 load(1, XDATA, add(CFA_XSP16, literal(-7)))
          CFI (cfiCond77) R7 load(1, XDATA, add(CFA_XSP16, literal(-6)))
          CFI (cfiCond77) ?RET_LOW load(1, XDATA, add(CFA_XSP16, literal(-5)))
          CFI (cfiCond77) ?RET_HIGH load(1, XDATA, add(CFA_XSP16, literal(-4)))
          CFI (cfiCond77) ?BRET_EXT load(1, XDATA, add(CFA_XSP16, literal(-3)))
          CFI (cfiCond77) DPL0 load(1, XDATA, add(CFA_XSP16, literal(-2)))
          CFI (cfiCond77) DPH0 load(1, XDATA, add(CFA_XSP16, literal(-1)))
          CFI (cfiCond77) CFA_SP SP+-2
          CFI (cfiCond77) CFA_XSP16 add(XSP16, 24)
          CFI Block cfiPicker78 Using cfiCommon1
          CFI (cfiPicker78) NoFunction
          CFI (cfiPicker78) Picker
        LCALL   ?Subroutine132 & 0xFFFF
??CrossCallReturnLabel_227:
        RET
          CFI EndBlock cfiCond76
          CFI EndBlock cfiCond77
          CFI EndBlock cfiPicker78

        RSEG BANKED_CODE:CODE:NOROOT(0)
?Subroutine132:
          CFI Block cfiCond79 Using cfiCommon0
          CFI Function zcl_SendReadRsp
          CFI Conditional ??CrossCallReturnLabel_227, ??CrossCallReturnLabel_52
          CFI R6 load(1, XDATA, add(CFA_XSP16, literal(-22)))
          CFI VB load(1, XDATA, add(CFA_XSP16, literal(-21)))
          CFI V0 load(1, XDATA, add(CFA_XSP16, literal(-20)))
          CFI V1 load(1, XDATA, add(CFA_XSP16, literal(-19)))
          CFI V2 load(1, XDATA, add(CFA_XSP16, literal(-18)))
          CFI V3 load(1, XDATA, add(CFA_XSP16, literal(-17)))
          CFI V4 load(1, XDATA, add(CFA_XSP16, literal(-16)))
          CFI V5 load(1, XDATA, add(CFA_XSP16, literal(-15)))
          CFI V6 load(1, XDATA, add(CFA_XSP16, literal(-14)))
          CFI V7 load(1, XDATA, add(CFA_XSP16, literal(-13)))
          CFI V8 load(1, XDATA, add(CFA_XSP16, literal(-12)))
          CFI V9 load(1, XDATA, add(CFA_XSP16, literal(-11)))
          CFI V10 load(1, XDATA, add(CFA_XSP16, literal(-10)))
          CFI V11 load(1, XDATA, add(CFA_XSP16, literal(-9)))
          CFI V12 load(1, XDATA, add(CFA_XSP16, literal(-8)))
          CFI V13 load(1, XDATA, add(CFA_XSP16, literal(-7)))
          CFI R7 load(1, XDATA, add(CFA_XSP16, literal(-6)))
          CFI ?RET_LOW load(1, XDATA, add(CFA_XSP16, literal(-5)))
          CFI ?RET_HIGH load(1, XDATA, add(CFA_XSP16, literal(-4)))
          CFI ?BRET_EXT load(1, XDATA, add(CFA_XSP16, literal(-3)))
          CFI DPL0 load(1, XDATA, add(CFA_XSP16, literal(-2)))
          CFI DPH0 load(1, XDATA, add(CFA_XSP16, literal(-1)))
          CFI CFA_SP SP+-4
          CFI CFA_XSP16 add(XSP16, 24)
          CFI Block cfiCond80 Using cfiCommon0
          CFI (cfiCond80) Function zcl_SendReadRsp
          CFI (cfiCond80) Conditional ??CrossCallReturnLabel_227, ??CrossCallReturnLabel_53
          CFI (cfiCond80) R6 load(1, XDATA, add(CFA_XSP16, literal(-22)))
          CFI (cfiCond80) VB load(1, XDATA, add(CFA_XSP16, literal(-21)))
          CFI (cfiCond80) V0 load(1, XDATA, add(CFA_XSP16, literal(-20)))
          CFI (cfiCond80) V1 load(1, XDATA, add(CFA_XSP16, literal(-19)))
          CFI (cfiCond80) V2 load(1, XDATA, add(CFA_XSP16, literal(-18)))
          CFI (cfiCond80) V3 load(1, XDATA, add(CFA_XSP16, literal(-17)))
          CFI (cfiCond80) V4 load(1, XDATA, add(CFA_XSP16, literal(-16)))
          CFI (cfiCond80) V5 load(1, XDATA, add(CFA_XSP16, literal(-15)))
          CFI (cfiCond80) V6 load(1, XDATA, add(CFA_XSP16, literal(-14)))
          CFI (cfiCond80) V7 load(1, XDATA, add(CFA_XSP16, literal(-13)))
          CFI (cfiCond80) V8 load(1, XDATA, add(CFA_XSP16, literal(-12)))
          CFI (cfiCond80) V9 load(1, XDATA, add(CFA_XSP16, literal(-11)))
          CFI (cfiCond80) V10 load(1, XDATA, add(CFA_XSP16, literal(-10)))
          CFI (cfiCond80) V11 load(1, XDATA, add(CFA_XSP16, literal(-9)))
          CFI (cfiCond80) V12 load(1, XDATA, add(CFA_XSP16, literal(-8)))
          CFI (cfiCond80) V13 load(1, XDATA, add(CFA_XSP16, literal(-7)))
          CFI (cfiCond80) R7 load(1, XDATA, add(CFA_XSP16, literal(-6)))
          CFI (cfiCond80) ?RET_LOW load(1, XDATA, add(CFA_XSP16, literal(-5)))
          CFI (cfiCond80) ?RET_HIGH load(1, XDATA, add(CFA_XSP16, literal(-4)))
          CFI (cfiCond80) ?BRET_EXT load(1, XDATA, add(CFA_XSP16, literal(-3)))
          CFI (cfiCond80) DPL0 load(1, XDATA, add(CFA_XSP16, literal(-2)))
          CFI (cfiCond80) DPH0 load(1, XDATA, add(CFA_XSP16, literal(-1)))
          CFI (cfiCond80) CFA_SP SP+-4
          CFI (cfiCond80) CFA_XSP16 add(XSP16, 24)
          CFI Block cfiCond81 Using cfiCommon0
          CFI (cfiCond81) Function zcl_SendReadRsp
          CFI (cfiCond81) Conditional ??CrossCallReturnLabel_226, ??CrossCallReturnLabel_22
          CFI (cfiCond81) R6 load(1, XDATA, add(CFA_XSP16, literal(-22)))
          CFI (cfiCond81) VB load(1, XDATA, add(CFA_XSP16, literal(-21)))
          CFI (cfiCond81) V0 load(1, XDATA, add(CFA_XSP16, literal(-20)))
          CFI (cfiCond81) V1 load(1, XDATA, add(CFA_XSP16, literal(-19)))
          CFI (cfiCond81) V2 load(1, XDATA, add(CFA_XSP16, literal(-18)))
          CFI (cfiCond81) V3 load(1, XDATA, add(CFA_XSP16, literal(-17)))
          CFI (cfiCond81) V4 load(1, XDATA, add(CFA_XSP16, literal(-16)))
          CFI (cfiCond81) V5 load(1, XDATA, add(CFA_XSP16, literal(-15)))
          CFI (cfiCond81) V6 load(1, XDATA, add(CFA_XSP16, literal(-14)))
          CFI (cfiCond81) V7 load(1, XDATA, add(CFA_XSP16, literal(-13)))
          CFI (cfiCond81) V8 load(1, XDATA, add(CFA_XSP16, literal(-12)))
          CFI (cfiCond81) V9 load(1, XDATA, add(CFA_XSP16, literal(-11)))
          CFI (cfiCond81) V10 load(1, XDATA, add(CFA_XSP16, literal(-10)))
          CFI (cfiCond81) V11 load(1, XDATA, add(CFA_XSP16, literal(-9)))
          CFI (cfiCond81) V12 load(1, XDATA, add(CFA_XSP16, literal(-8)))
          CFI (cfiCond81) V13 load(1, XDATA, add(CFA_XSP16, literal(-7)))
          CFI (cfiCond81) R7 load(1, XDATA, add(CFA_XSP16, literal(-6)))
          CFI (cfiCond81) ?RET_LOW load(1, XDATA, add(CFA_XSP16, literal(-5)))
          CFI (cfiCond81) ?RET_HIGH load(1, XDATA, add(CFA_XSP16, literal(-4)))
          CFI (cfiCond81) ?BRET_EXT load(1, XDATA, add(CFA_XSP16, literal(-3)))
          CFI (cfiCond81) DPL0 load(1, XDATA, add(CFA_XSP16, literal(-2)))
          CFI (cfiCond81) DPH0 load(1, XDATA, add(CFA_XSP16, literal(-1)))
          CFI (cfiCond81) CFA_SP SP+-4
          CFI (cfiCond81) CFA_XSP16 add(XSP16, 24)
          CFI Block cfiCond82 Using cfiCommon0
          CFI (cfiCond82) Function zcl_SendReadRsp
          CFI (cfiCond82) Conditional ??CrossCallReturnLabel_226, ??CrossCallReturnLabel_23
          CFI (cfiCond82) R6 load(1, XDATA, add(CFA_XSP16, literal(-22)))
          CFI (cfiCond82) VB load(1, XDATA, add(CFA_XSP16, literal(-21)))
          CFI (cfiCond82) V0 load(1, XDATA, add(CFA_XSP16, literal(-20)))
          CFI (cfiCond82) V1 load(1, XDATA, add(CFA_XSP16, literal(-19)))
          CFI (cfiCond82) V2 load(1, XDATA, add(CFA_XSP16, literal(-18)))
          CFI (cfiCond82) V3 load(1, XDATA, add(CFA_XSP16, literal(-17)))
          CFI (cfiCond82) V4 load(1, XDATA, add(CFA_XSP16, literal(-16)))
          CFI (cfiCond82) V5 load(1, XDATA, add(CFA_XSP16, literal(-15)))
          CFI (cfiCond82) V6 load(1, XDATA, add(CFA_XSP16, literal(-14)))
          CFI (cfiCond82) V7 load(1, XDATA, add(CFA_XSP16, literal(-13)))
          CFI (cfiCond82) V8 load(1, XDATA, add(CFA_XSP16, literal(-12)))
          CFI (cfiCond82) V9 load(1, XDATA, add(CFA_XSP16, literal(-11)))
          CFI (cfiCond82) V10 load(1, XDATA, add(CFA_XSP16, literal(-10)))
          CFI (cfiCond82) V11 load(1, XDATA, add(CFA_XSP16, literal(-9)))
          CFI (cfiCond82) V12 load(1, XDATA, add(CFA_XSP16, literal(-8)))
          CFI (cfiCond82) V13 load(1, XDATA, add(CFA_XSP16, literal(-7)))
          CFI (cfiCond82) R7 load(1, XDATA, add(CFA_XSP16, literal(-6)))
          CFI (cfiCond82) ?RET_LOW load(1, XDATA, add(CFA_XSP16, literal(-5)))
          CFI (cfiCond82) ?RET_HIGH load(1, XDATA, add(CFA_XSP16, literal(-4)))
          CFI (cfiCond82) ?BRET_EXT load(1, XDATA, add(CFA_XSP16, literal(-3)))
          CFI (cfiCond82) DPL0 load(1, XDATA, add(CFA_XSP16, literal(-2)))
          CFI (cfiCond82) DPH0 load(1, XDATA, add(CFA_XSP16, literal(-1)))
          CFI (cfiCond82) CFA_SP SP+-4
          CFI (cfiCond82) CFA_XSP16 add(XSP16, 24)
          CFI Block cfiPicker83 Using cfiCommon1
          CFI (cfiPicker83) NoFunction
          CFI (cfiPicker83) Picker
        MOVX    A,@DPTR
        MOV     DPL,?V0
        MOV     DPH,?V1
        MOVX    @DPTR,A
        INC     DPTR
        MOV     ?V0,DPL
        MOV     ?V1,DPH
        RET
          CFI EndBlock cfiCond79
          CFI EndBlock cfiCond80
          CFI EndBlock cfiCond81
          CFI EndBlock cfiCond82
          CFI EndBlock cfiPicker83

        RSEG BANKED_CODE:CODE:NOROOT(0)
?Subroutine28:
          CFI Block cfiCond84 Using cfiCommon0
          CFI Function zcl_SendReadRsp
          CFI Conditional ??CrossCallReturnLabel_22
          CFI R6 load(1, XDATA, add(CFA_XSP16, literal(-22)))
          CFI VB load(1, XDATA, add(CFA_XSP16, literal(-21)))
          CFI V0 load(1, XDATA, add(CFA_XSP16, literal(-20)))
          CFI V1 load(1, XDATA, add(CFA_XSP16, literal(-19)))
          CFI V2 load(1, XDATA, add(CFA_XSP16, literal(-18)))
          CFI V3 load(1, XDATA, add(CFA_XSP16, literal(-17)))
          CFI V4 load(1, XDATA, add(CFA_XSP16, literal(-16)))
          CFI V5 load(1, XDATA, add(CFA_XSP16, literal(-15)))
          CFI V6 load(1, XDATA, add(CFA_XSP16, literal(-14)))
          CFI V7 load(1, XDATA, add(CFA_XSP16, literal(-13)))
          CFI V8 load(1, XDATA, add(CFA_XSP16, literal(-12)))
          CFI V9 load(1, XDATA, add(CFA_XSP16, literal(-11)))
          CFI V10 load(1, XDATA, add(CFA_XSP16, literal(-10)))
          CFI V11 load(1, XDATA, add(CFA_XSP16, literal(-9)))
          CFI V12 load(1, XDATA, add(CFA_XSP16, literal(-8)))
          CFI V13 load(1, XDATA, add(CFA_XSP16, literal(-7)))
          CFI R7 load(1, XDATA, add(CFA_XSP16, literal(-6)))
          CFI ?RET_LOW load(1, XDATA, add(CFA_XSP16, literal(-5)))
          CFI ?RET_HIGH load(1, XDATA, add(CFA_XSP16, literal(-4)))
          CFI ?BRET_EXT load(1, XDATA, add(CFA_XSP16, literal(-3)))
          CFI DPL0 load(1, XDATA, add(CFA_XSP16, literal(-2)))
          CFI DPH0 load(1, XDATA, add(CFA_XSP16, literal(-1)))
          CFI CFA_SP SP+-2
          CFI CFA_XSP16 add(XSP16, 24)
          CFI Block cfiCond85 Using cfiCommon0
          CFI (cfiCond85) Function zcl_SendReadRsp
          CFI (cfiCond85) Conditional ??CrossCallReturnLabel_23
          CFI (cfiCond85) R6 load(1, XDATA, add(CFA_XSP16, literal(-22)))
          CFI (cfiCond85) VB load(1, XDATA, add(CFA_XSP16, literal(-21)))
          CFI (cfiCond85) V0 load(1, XDATA, add(CFA_XSP16, literal(-20)))
          CFI (cfiCond85) V1 load(1, XDATA, add(CFA_XSP16, literal(-19)))
          CFI (cfiCond85) V2 load(1, XDATA, add(CFA_XSP16, literal(-18)))
          CFI (cfiCond85) V3 load(1, XDATA, add(CFA_XSP16, literal(-17)))
          CFI (cfiCond85) V4 load(1, XDATA, add(CFA_XSP16, literal(-16)))
          CFI (cfiCond85) V5 load(1, XDATA, add(CFA_XSP16, literal(-15)))
          CFI (cfiCond85) V6 load(1, XDATA, add(CFA_XSP16, literal(-14)))
          CFI (cfiCond85) V7 load(1, XDATA, add(CFA_XSP16, literal(-13)))
          CFI (cfiCond85) V8 load(1, XDATA, add(CFA_XSP16, literal(-12)))
          CFI (cfiCond85) V9 load(1, XDATA, add(CFA_XSP16, literal(-11)))
          CFI (cfiCond85) V10 load(1, XDATA, add(CFA_XSP16, literal(-10)))
          CFI (cfiCond85) V11 load(1, XDATA, add(CFA_XSP16, literal(-9)))
          CFI (cfiCond85) V12 load(1, XDATA, add(CFA_XSP16, literal(-8)))
          CFI (cfiCond85) V13 load(1, XDATA, add(CFA_XSP16, literal(-7)))
          CFI (cfiCond85) R7 load(1, XDATA, add(CFA_XSP16, literal(-6)))
          CFI (cfiCond85) ?RET_LOW load(1, XDATA, add(CFA_XSP16, literal(-5)))
          CFI (cfiCond85) ?RET_HIGH load(1, XDATA, add(CFA_XSP16, literal(-4)))
          CFI (cfiCond85) ?BRET_EXT load(1, XDATA, add(CFA_XSP16, literal(-3)))
          CFI (cfiCond85) DPL0 load(1, XDATA, add(CFA_XSP16, literal(-2)))
          CFI (cfiCond85) DPH0 load(1, XDATA, add(CFA_XSP16, literal(-1)))
          CFI (cfiCond85) CFA_SP SP+-2
          CFI (cfiCond85) CFA_XSP16 add(XSP16, 24)
          CFI Block cfiPicker86 Using cfiCommon1
          CFI (cfiPicker86) NoFunction
          CFI (cfiPicker86) Picker
        LCALL   ?Subroutine132 & 0xFFFF
??CrossCallReturnLabel_226:
        MOV     DPL,R2
        MOV     DPH,R3
        INC     DPTR
        RET
          CFI EndBlock cfiCond84
          CFI EndBlock cfiCond85
          CFI EndBlock cfiPicker86
// 1084 #endif // ZCL_READ
// 1085 
// 1086 #ifdef ZCL_WRITE
// 1087 /*********************************************************************
// 1088  * @fn      sendWriteRequest
// 1089  *
// 1090  * @brief   Send a Write command
// 1091  *
// 1092  * @param   dstAddr - destination address
// 1093  * @param   clusterID - cluster ID
// 1094  * @param   writeCmd - write command to be sent
// 1095  * @param   cmd - ZCL_CMD_WRITE, ZCL_CMD_WRITE_UNDIVIDED or ZCL_CMD_WRITE_NO_RSP
// 1096  * @param   direction - direction of the command
// 1097  * @param   seqNum - transaction sequence number
// 1098  *
// 1099  * @return  ZSuccess if OK
// 1100  */

        RSEG BANKED_CODE:CODE:NOROOT(0)
// 1101 ZStatus_t zcl_SendWriteRequest( uint8 srcEP, afAddrType_t *dstAddr, uint16 clusterID,
zcl_SendWriteRequest:
          CFI Block cfiBlock87 Using cfiCommon0
          CFI Function zcl_SendWriteRequest
        CODE
// 1102                                 zclWriteCmd_t *writeCmd, uint8 cmd, uint8 direction,
// 1103                                 uint8 disableDefaultRsp, uint8 seqNum )
// 1104 {
        FUNCALL zcl_SendWriteRequest, zclGetAttrDataLength
        LOCFRAME ISTACK, 0, STACK
        LOCFRAME PSTACK, 0, STACK
        LOCFRAME XSTACK, 20, STACK
        LOCFRAME IOVERLAY, 0, STATIC
        LOCFRAME DOVERLAY, 0, STATIC
        ARGFRAME ISTACK, 0, STACK
        ARGFRAME PSTACK, 0, STACK
        ARGFRAME XSTACK, 20, STACK
        ARGFRAME IOVERLAY, 0, STATIC
        ARGFRAME DOVERLAY, 0, STATIC
        FUNCALL zcl_SendWriteRequest, osal_mem_alloc
        LOCFRAME ISTACK, 0, STACK
        LOCFRAME PSTACK, 0, STACK
        LOCFRAME XSTACK, 20, STACK
        LOCFRAME IOVERLAY, 0, STATIC
        LOCFRAME DOVERLAY, 0, STATIC
        ARGFRAME ISTACK, 0, STACK
        ARGFRAME PSTACK, 0, STACK
        ARGFRAME XSTACK, 20, STACK
        ARGFRAME IOVERLAY, 0, STATIC
        ARGFRAME DOVERLAY, 0, STATIC
        FUNCALL zcl_SendWriteRequest, zclSerializeData
        LOCFRAME ISTACK, 0, STACK
        LOCFRAME PSTACK, 0, STACK
        LOCFRAME XSTACK, 20, STACK
        LOCFRAME IOVERLAY, 0, STATIC
        LOCFRAME DOVERLAY, 0, STATIC
        ARGFRAME ISTACK, 0, STACK
        ARGFRAME PSTACK, 0, STACK
        ARGFRAME XSTACK, 20, STACK
        ARGFRAME IOVERLAY, 0, STATIC
        ARGFRAME DOVERLAY, 0, STATIC
        FUNCALL zcl_SendWriteRequest, zcl_SendCommand
        LOCFRAME ISTACK, 0, STACK
        LOCFRAME PSTACK, 0, STACK
        LOCFRAME XSTACK, 31, STACK
        LOCFRAME IOVERLAY, 0, STATIC
        LOCFRAME DOVERLAY, 0, STATIC
        ARGFRAME ISTACK, 0, STACK
        ARGFRAME PSTACK, 0, STACK
        ARGFRAME XSTACK, 31, STACK
        ARGFRAME IOVERLAY, 0, STATIC
        ARGFRAME DOVERLAY, 0, STATIC
        FUNCALL zcl_SendWriteRequest, osal_mem_free
        LOCFRAME ISTACK, 0, STACK
        LOCFRAME PSTACK, 0, STACK
        LOCFRAME XSTACK, 20, STACK
        LOCFRAME IOVERLAY, 0, STATIC
        LOCFRAME DOVERLAY, 0, STATIC
        ARGFRAME ISTACK, 0, STACK
        ARGFRAME PSTACK, 0, STACK
        ARGFRAME XSTACK, 20, STACK
        ARGFRAME IOVERLAY, 0, STATIC
        ARGFRAME DOVERLAY, 0, STATIC
        REQUIRE ?V0
        REQUIRE ?V1
        REQUIRE ?V2
        REQUIRE ?V3
        REQUIRE ?V4
        REQUIRE ?V5
        REQUIRE ?V6
        REQUIRE ?V7
        REQUIRE ?V8
        REQUIRE ?V9
        REQUIRE ?V10
        REQUIRE ?V11
        MOV     A,#-0x14
        LCALL   ?BANKED_ENTER_XDATA
          CFI DPH0 load(1, XDATA, add(CFA_XSP16, literal(-1)))
          CFI DPL0 load(1, XDATA, add(CFA_XSP16, literal(-2)))
          CFI ?BRET_EXT load(1, XDATA, add(CFA_XSP16, literal(-3)))
          CFI ?RET_HIGH load(1, XDATA, add(CFA_XSP16, literal(-4)))
          CFI ?RET_LOW load(1, XDATA, add(CFA_XSP16, literal(-5)))
          CFI R7 load(1, XDATA, add(CFA_XSP16, literal(-6)))
          CFI V11 load(1, XDATA, add(CFA_XSP16, literal(-7)))
          CFI V10 load(1, XDATA, add(CFA_XSP16, literal(-8)))
          CFI V9 load(1, XDATA, add(CFA_XSP16, literal(-9)))
          CFI V8 load(1, XDATA, add(CFA_XSP16, literal(-10)))
          CFI V7 load(1, XDATA, add(CFA_XSP16, literal(-11)))
          CFI V6 load(1, XDATA, add(CFA_XSP16, literal(-12)))
          CFI V5 load(1, XDATA, add(CFA_XSP16, literal(-13)))
          CFI V4 load(1, XDATA, add(CFA_XSP16, literal(-14)))
          CFI V3 load(1, XDATA, add(CFA_XSP16, literal(-15)))
          CFI V2 load(1, XDATA, add(CFA_XSP16, literal(-16)))
          CFI V1 load(1, XDATA, add(CFA_XSP16, literal(-17)))
          CFI V0 load(1, XDATA, add(CFA_XSP16, literal(-18)))
          CFI VB load(1, XDATA, add(CFA_XSP16, literal(-19)))
          CFI R6 load(1, XDATA, add(CFA_XSP16, literal(-20)))
          CFI CFA_SP SP+0
          CFI CFA_XSP16 add(XSP16, 20)
        ; Saved register size: 20
        ; Auto size: 0
        MOV     ?V3,R1
        MOV     ?V8,R2
        MOV     ?V9,R3
        MOV     ?V6,R4
        MOV     ?V7,R5
// 1105   uint8 *buf;
// 1106   uint16 dataLen = 0;
        MOV     R6,#0x0
        MOV     R7,#0x0
// 1107   ZStatus_t status;
// 1108   uint8 i;
// 1109 
// 1110   for ( i = 0; i < writeCmd->numAttr; i++ )
        MOV     ?V2,R6
        MOV     A,#0x14
        LCALL   ?XSTACK_DISP0_8
        LCALL   ?Subroutine92 & 0xFFFF
??CrossCallReturnLabel_147:
        SJMP    ??CrossCallReturnLabel_211
// 1111   {
// 1112     zclWriteRec_t *statusRec = &(writeCmd->attrList[i]);
??zcl_SendWriteRequest_0:
        LCALL   ?Subroutine78 & 0xFFFF
// 1113 
// 1114     dataLen += 2 + 1; // Attribute ID + Attribute Type
// 1115 
// 1116     // Attribute Data
// 1117     dataLen += zclGetAttrDataLength( statusRec->dataType, statusRec->attrData );
// 1118   }
??CrossCallReturnLabel_125:
        LCALL   ??zclGetAttrDataLength?relay; Banked call to: zclGetAttrDataLength
        LCALL   ?Subroutine120 & 0xFFFF
??CrossCallReturnLabel_211:
        LCALL   ?Subroutine55 & 0xFFFF
??CrossCallReturnLabel_458:
        JC      ??zcl_SendWriteRequest_0
// 1119 
// 1120   buf = zcl_mem_alloc( dataLen );
        ; Setup parameters for call to function osal_mem_alloc
        MOV     A,R6
        MOV     R2,A
        MOV     A,R7
        MOV     R3,A
        LCALL   ??osal_mem_alloc?relay; Banked call to: osal_mem_alloc
        MOV     ?V0,R2
        MOV     ?V1,R3
// 1121   if ( buf != NULL )
        MOV     A,R2
        ORL     A,?V1
        JNZ     $+5
        LJMP    ??zcl_SendWriteRequest_1 & 0xFFFF
// 1122   {
// 1123     // Load the buffer - serially
// 1124     uint8 *pBuf = buf;
        MOV     R4,?V0
        MOV     R5,?V1
// 1125     for ( i = 0; i < writeCmd->numAttr; i++ )
        MOV     ?V2,#0x0
        SJMP    ??zcl_SendWriteRequest_2
// 1126     {
// 1127       zclWriteRec_t *statusRec = &(writeCmd->attrList[i]);
??zcl_SendWriteRequest_3:
        LCALL   ?Subroutine13 & 0xFFFF
// 1128 
// 1129       *pBuf++ = LO_UINT16( statusRec->attrID );
// 1130       *pBuf++ = HI_UINT16( statusRec->attrID );
// 1131       *pBuf++ = statusRec->dataType;
// 1132 
// 1133       pBuf = zclSerializeData( statusRec->dataType, statusRec->attrData, pBuf );
// 1134     }
??CrossCallReturnLabel_0:
        LCALL   ??zclSerializeData?relay; Banked call to: zclSerializeData
        MOV     ?V10,R2
        MOV     ?V11,R3
        MOV     R4,?V10
        MOV     R5,?V11
        INC     ?V2
??zcl_SendWriteRequest_2:
        LCALL   ?Subroutine55 & 0xFFFF
??CrossCallReturnLabel_459:
        JC      ??zcl_SendWriteRequest_3
// 1135 
// 1136     status = zcl_SendCommand( srcEP, dstAddr, clusterID, cmd, FALSE,
// 1137                               direction, disableDefaultRsp, 0, seqNum, dataLen, buf );
        ; Setup parameters for call to function zcl_SendCommand
        MOV     R0,#?V0
        LCALL   ?PUSH_XSTACK_I_TWO
          CFI CFA_XSP16 add(XSP16, 22)
        MOV     ?V4,R6
        MOV     ?V5,R7
        MOV     R0,#?V4
        LCALL   ?PUSH_XSTACK_I_TWO
          CFI CFA_XSP16 add(XSP16, 24)
        MOV     A,#0x1d
        LCALL   ?XSTACK_DISP0_8
        LCALL   ??Subroutine203_0 & 0xFFFF
??CrossCallReturnLabel_434:
        LCALL   ?PUSH_XSTACK_I_ONE
          CFI CFA_XSP16 add(XSP16, 25)
        CLR     A
        MOV     ?V4,A
        MOV     ?V5,A
        MOV     R0,#?V4
        LCALL   ?PUSH_XSTACK_I_TWO
          CFI CFA_XSP16 add(XSP16, 27)
        MOV     A,#0x1f
        LCALL   ?XSTACK_DISP0_8
        LCALL   ??Subroutine203_0 & 0xFFFF
??CrossCallReturnLabel_435:
        LCALL   ?PUSH_XSTACK_I_ONE
          CFI CFA_XSP16 add(XSP16, 28)
        MOV     A,#0x1f
        LCALL   ?XSTACK_DISP0_8
        LCALL   ??Subroutine203_0 & 0xFFFF
??CrossCallReturnLabel_436:
        LCALL   ?PUSH_XSTACK_I_ONE
          CFI CFA_XSP16 add(XSP16, 29)
        MOV     ?V2,#0x0
        MOV     R0,#?V2
        LCALL   ?PUSH_XSTACK_I_ONE
          CFI CFA_XSP16 add(XSP16, 30)
        MOV     A,#0x20
        LCALL   ?XSTACK_DISP0_8
        LCALL   ??Subroutine203_0 & 0xFFFF
??CrossCallReturnLabel_437:
        LCALL   ?PUSH_XSTACK_I_ONE
          CFI CFA_XSP16 add(XSP16, 31)
        MOV     R4,?V6
        MOV     R5,?V7
        MOV     R2,?V8
        MOV     R3,?V9
        MOV     R1,?V3
        LCALL   ??zcl_SendCommand?relay; Banked call to: zcl_SendCommand
        MOV     A,#0xb
        LCALL   ?DEALLOC_XSTACK8
          CFI CFA_XSP16 add(XSP16, 20)
        MOV     A,R1
        MOV     R6,A
// 1138     zcl_mem_free( buf );
        ; Setup parameters for call to function osal_mem_free
        MOV     R2,?V0
        MOV     R3,?V1
        LCALL   ??osal_mem_free?relay; Banked call to: osal_mem_free
        SJMP    ??zcl_SendWriteRequest_4
// 1139   }
// 1140   else
// 1141   {
// 1142     status = ZMemError;
??zcl_SendWriteRequest_1:
        MOV     R6,#0x10
// 1143   }
// 1144 
// 1145   return ( status);
??zcl_SendWriteRequest_4:
        LJMP    ?Subroutine10 & 0xFFFF
          CFI EndBlock cfiBlock87
// 1146 }
// 1147 
// 1148 /*********************************************************************
// 1149  * @fn      zcl_SendWriteRsp
// 1150  *
// 1151  * @brief   Send a Write Response command
// 1152  *
// 1153  * @param   dstAddr - destination address
// 1154  * @param   clusterID - cluster ID
// 1155  * @param   wrtieRspCmd - write response command to be sent
// 1156  * @param   direction - direction of the command
// 1157  * @param   seqNum - transaction sequence number
// 1158  *
// 1159  * @return  ZSuccess if OK
// 1160  */

        RSEG BANKED_CODE:CODE:NOROOT(0)
// 1161 ZStatus_t zcl_SendWriteRsp( uint8 srcEP, afAddrType_t *dstAddr,
zcl_SendWriteRsp:
          CFI Block cfiBlock88 Using cfiCommon0
          CFI Function zcl_SendWriteRsp
        CODE
// 1162                             uint16 clusterID, zclWriteRspCmd_t *writeRspCmd,
// 1163                             uint8 direction, uint8 disableDefaultRsp, uint8 seqNum )
// 1164 {
        FUNCALL zcl_SendWriteRsp, osal_mem_alloc
        LOCFRAME ISTACK, 0, STACK
        LOCFRAME PSTACK, 0, STACK
        LOCFRAME XSTACK, 20, STACK
        LOCFRAME IOVERLAY, 0, STATIC
        LOCFRAME DOVERLAY, 0, STATIC
        ARGFRAME ISTACK, 0, STACK
        ARGFRAME PSTACK, 0, STACK
        ARGFRAME XSTACK, 20, STACK
        ARGFRAME IOVERLAY, 0, STATIC
        ARGFRAME DOVERLAY, 0, STATIC
        FUNCALL zcl_SendWriteRsp, zcl_SendCommand
        LOCFRAME ISTACK, 0, STACK
        LOCFRAME PSTACK, 0, STACK
        LOCFRAME XSTACK, 31, STACK
        LOCFRAME IOVERLAY, 0, STATIC
        LOCFRAME DOVERLAY, 0, STATIC
        ARGFRAME ISTACK, 0, STACK
        ARGFRAME PSTACK, 0, STACK
        ARGFRAME XSTACK, 31, STACK
        ARGFRAME IOVERLAY, 0, STATIC
        ARGFRAME DOVERLAY, 0, STATIC
        FUNCALL zcl_SendWriteRsp, osal_mem_free
        LOCFRAME ISTACK, 0, STACK
        LOCFRAME PSTACK, 0, STACK
        LOCFRAME XSTACK, 20, STACK
        LOCFRAME IOVERLAY, 0, STATIC
        LOCFRAME DOVERLAY, 0, STATIC
        ARGFRAME ISTACK, 0, STACK
        ARGFRAME PSTACK, 0, STACK
        ARGFRAME XSTACK, 20, STACK
        ARGFRAME IOVERLAY, 0, STATIC
        ARGFRAME DOVERLAY, 0, STATIC
        REQUIRE ?V0
        REQUIRE ?V1
        REQUIRE ?V2
        REQUIRE ?V3
        REQUIRE ?V4
        REQUIRE ?V5
        REQUIRE ?V6
        REQUIRE ?V7
        REQUIRE ?V8
        REQUIRE ?V9
        REQUIRE ?V10
        REQUIRE ?V11
        MOV     A,#-0x14
        LCALL   ?BANKED_ENTER_XDATA
          CFI DPH0 load(1, XDATA, add(CFA_XSP16, literal(-1)))
          CFI DPL0 load(1, XDATA, add(CFA_XSP16, literal(-2)))
          CFI ?BRET_EXT load(1, XDATA, add(CFA_XSP16, literal(-3)))
          CFI ?RET_HIGH load(1, XDATA, add(CFA_XSP16, literal(-4)))
          CFI ?RET_LOW load(1, XDATA, add(CFA_XSP16, literal(-5)))
          CFI R7 load(1, XDATA, add(CFA_XSP16, literal(-6)))
          CFI V11 load(1, XDATA, add(CFA_XSP16, literal(-7)))
          CFI V10 load(1, XDATA, add(CFA_XSP16, literal(-8)))
          CFI V9 load(1, XDATA, add(CFA_XSP16, literal(-9)))
          CFI V8 load(1, XDATA, add(CFA_XSP16, literal(-10)))
          CFI V7 load(1, XDATA, add(CFA_XSP16, literal(-11)))
          CFI V6 load(1, XDATA, add(CFA_XSP16, literal(-12)))
          CFI V5 load(1, XDATA, add(CFA_XSP16, literal(-13)))
          CFI V4 load(1, XDATA, add(CFA_XSP16, literal(-14)))
          CFI V3 load(1, XDATA, add(CFA_XSP16, literal(-15)))
          CFI V2 load(1, XDATA, add(CFA_XSP16, literal(-16)))
          CFI V1 load(1, XDATA, add(CFA_XSP16, literal(-17)))
          CFI V0 load(1, XDATA, add(CFA_XSP16, literal(-18)))
          CFI VB load(1, XDATA, add(CFA_XSP16, literal(-19)))
          CFI R6 load(1, XDATA, add(CFA_XSP16, literal(-20)))
          CFI CFA_SP SP+0
          CFI CFA_XSP16 add(XSP16, 20)
        ; Saved register size: 20
        ; Auto size: 0
        MOV     ?V2,R1
        MOV     ?V8,R2
        MOV     ?V9,R3
        MOV     A,R4
        MOV     R6,A
        MOV     A,R5
        MOV     R7,A
        MOV     A,#0x14
        LCALL   ?XSTACK_DISP0_8
        LCALL   ?Subroutine59 & 0xFFFF
// 1165   uint16 dataLen;
// 1166   uint8 *buf;
// 1167   ZStatus_t status;
// 1168 
// 1169   dataLen = writeRspCmd->numAttr * ( 1 + 2 ); // status + attribute id
// 1170 
// 1171   buf = zcl_mem_alloc( dataLen );
??CrossCallReturnLabel_79:
        LCALL   ??osal_mem_alloc?relay; Banked call to: osal_mem_alloc
        MOV     ?V0,R2
        MOV     ?V1,R3
// 1172   if ( buf != NULL )
        MOV     A,R2
        ORL     A,?V1
        JNZ     $+5
        LJMP    ??zcl_SendWriteRsp_0 & 0xFFFF
// 1173   {
// 1174     // Load the buffer - serially
// 1175     uint8 i;
// 1176     uint8 *pBuf = buf;
        MOV     R0,?V0
        MOV     R1,?V1
// 1177     for ( i = 0; i < writeRspCmd->numAttr; i++ )
