///////////////////////////////////////////////////////////////////////////////
//                                                                            /
// IAR C/C++ Compiler V8.30.1.41636 for 8051            27/Oct/2015  21:12:34 /
// Copyright 2004-2013 IAR Systems AB.                                        /
//                                                                            /
//    Core               =  plain                                             /
//    Code model         =  banked                                            /
//    Data model         =  large                                             /
//    Calling convention =  xdata reentrant                                   /
//    Constant location  =  data_rom                                          /
//    Dptr setup         =  1,16                                              /
//                                                                            /
//    Source file        =  C:\Users\paolo\Documents\GitHub\zpowermeter\firmw /
//                          are\Components\stack\zcl\zclListAttribute.cpp     /
//    Command line       =  -f C:\Users\paolo\Documents\GitHub\zpowermeter\fi /
//                          rmware\CC2530DB\..\Tools\f8wRouter.cfg            /
//                          (-DCPU32MHZ -DROOT=__near_func                    /
//                          -DMAC_CFG_APP_PENDING_QUEUE=TRUE                  /
//                          -DMAC_CFG_TX_DATA_MAX=5 -DMAC_CFG_TX_MAX=8        /
//                          -DMAC_CFG_RX_MAX=5 -DRTR_NWK) -f                  /
//                          C:\Users\paolo\Documents\GitHub\zpowermeter\firmw /
//                          are\CC2530DB\..\Tools\f8wConfig.cfg (-DZIGBEEPRO  /
//                          -DSECURE=0 -DZG_SECURE_DYNAMIC=0 -DREFLECTOR      /
//                          -DDEFAULT_CHANLIST=0x00000800                     /
//                          -DZDAPP_CONFIG_PAN_ID=0xFFFF                      /
//                          -DNWK_START_DELAY=100 -DEXTENDED_JOINING_RANDOM_M /
//                          ASK=0x007F -DBEACON_REQUEST_DELAY=100             /
//                          -DBEACON_REQ_DELAY_MASK=0x00FF                    /
//                          -DLINK_STATUS_JITTER_MASK=0x007F                  /
//                          -DROUTE_EXPIRY_TIME=30 -DAPSC_ACK_WAIT_DURATION_P /
//                          OLLED=3000 -DNWK_INDIRECT_MSG_TIMEOUT=7           /
//                          -DMAX_RREQ_ENTRIES=8 -DAPSC_MAX_FRAME_RETRIES=3   /
//                          -DNWK_MAX_DATA_RETRIES=2                          /
//                          -DMAX_POLL_FAILURE_RETRIES=2 -DMAX_BCAST=9        /
//                          -DAPS_MAX_GROUPS=16 -DMAX_RTG_ENTRIES=40          /
//                          -DNWK_MAX_BINDING_ENTRIES=4                       /
//                          -DMAX_BINDING_CLUSTER_IDS=4                       /
//                          "-DDEFAULT_KEY={0x01, 0x03, 0x05, 0x07, 0x09,     /
//                          0x0B, 0x0D, 0x0F, 0x00, 0x02, 0x04, 0x06, 0x08,   /
//                          0x0A, 0x0C, 0x0D}" -DMAC_MAX_FRAME_SIZE=116       /
//                          -DZDNWKMGR_MIN_TRANSMISSIONS=20 "-DCONST=const    /
//                          __code" -DGENERIC=__generic                       /
//                          -DRFD_RCVC_ALWAYS_ON=FALSE -DPOLL_RATE=5000       /
//                          -DQUEUED_POLL_RATE=100 -DRESPONSE_POLL_RATE=100   /
//                          -DREJOIN_POLL_RATE=440) -f                        /
//                          C:\Users\paolo\Documents\GitHub\zpowermeter\firmw /
//                          are\CC2530DB\..\Tools\f8wZCL.cfg                  /
//                          C:\Users\paolo\Documents\GitHub\zpowermeter\firmw /
//                          are\Components\stack\zcl\zclListAttribute.cpp -D  /
//                          SECURE=0 -D OSC32K_CRYSTAL_INSTALLED=FALSE -D     /
//                          HAL_KEY=FALSE -D HAL_BOARD_CC2530EB_REV17 -D      /
//                          TC_LINKKEY_JOIN -D NV_INIT -D xNV_RESTORE -D      /
//                          MULTICAST_ENABLED=FALSE -D ZCL_READ -D ZCL_WRITE  /
//                          -D ZCL_REPORT -D FEATURE_SYSTEM_STATS -lC         /
//                          C:\Users\paolo\Documents\GitHub\zpowermeter\firmw /
//                          are\CC2530DB\RouterEB\List\ -lA                   /
//                          C:\Users\paolo\Documents\GitHub\zpowermeter\firmw /
//                          are\CC2530DB\RouterEB\List\ --diag_suppress       /
//                          Pe001,Pa010 -o C:\Users\paolo\Documents\GitHub\zp /
//                          owermeter\firmware\CC2530DB\RouterEB\Obj\ -e      /
//                          --debug --core=plain --dptr=16,1                  /
//                          --data_model=large --code_model=banked            /
//                          --calling_convention=xdata_reentrant              /
//                          --place_constants=data_rom --nr_virtual_regs 16   /
//                          -I C:\Users\paolo\Documents\GitHub\zpowermeter\fi /
//                          rmware\CC2530DB\ -I C:\Users\paolo\Documents\GitH /
//                          ub\zpowermeter\firmware\CC2530DB\..\Source\ -I    /
//                          C:\Users\paolo\Documents\GitHub\zpowermeter\firmw /
//                          are\CC2530DB\..\Source\ha\ -I                     /
//                          C:\Users\paolo\Documents\GitHub\zpowermeter\firmw /
//                          are\CC2530DB\..\Source\zmain\ -I                  /
//                          C:\Users\paolo\Documents\GitHub\zpowermeter\firmw /
//                          are\CC2530DB\..\Components\hal\include\ -I        /
//                          C:\Users\paolo\Documents\GitHub\zpowermeter\firmw /
//                          are\CC2530DB\..\Components\hal\target\CC2530EB\   /
//                          -I C:\Users\paolo\Documents\GitHub\zpowermeter\fi /
//                          rmware\CC2530DB\..\Components\mac\include\ -I     /
//                          C:\Users\paolo\Documents\GitHub\zpowermeter\firmw /
//                          are\CC2530DB\..\Components\mac\high_level\ -I     /
//                          C:\Users\paolo\Documents\GitHub\zpowermeter\firmw /
//                          are\CC2530DB\..\Components\mac\low_level\srf04\   /
//                          -I C:\Users\paolo\Documents\GitHub\zpowermeter\fi /
//                          rmware\CC2530DB\..\Components\mac\low_level\srf04 /
//                          \single_chip\ -I C:\Users\paolo\Documents\GitHub\ /
//                          zpowermeter\firmware\CC2530DB\..\Components\mt\   /
//                          -I C:\Users\paolo\Documents\GitHub\zpowermeter\fi /
//                          rmware\CC2530DB\..\Components\osal\include\ -I    /
//                          C:\Users\paolo\Documents\GitHub\zpowermeter\firmw /
//                          are\CC2530DB\..\Components\services\saddr\ -I     /
//                          C:\Users\paolo\Documents\GitHub\zpowermeter\firmw /
//                          are\CC2530DB\..\Components\services\sdata\ -I     /
//                          C:\Users\paolo\Documents\GitHub\zpowermeter\firmw /
//                          are\CC2530DB\..\Components\stack\af\ -I           /
//                          C:\Users\paolo\Documents\GitHub\zpowermeter\firmw /
//                          are\CC2530DB\..\Components\stack\nwk\ -I          /
//                          C:\Users\paolo\Documents\GitHub\zpowermeter\firmw /
//                          are\CC2530DB\..\Components\stack\sapi\ -I         /
//                          C:\Users\paolo\Documents\GitHub\zpowermeter\firmw /
//                          are\CC2530DB\..\Components\stack\sec\ -I          /
//                          C:\Users\paolo\Documents\GitHub\zpowermeter\firmw /
//                          are\CC2530DB\..\Components\stack\sys\ -I          /
//                          C:\Users\paolo\Documents\GitHub\zpowermeter\firmw /
//                          are\CC2530DB\..\Components\stack\zcl\ -I          /
//                          C:\Users\paolo\Documents\GitHub\zpowermeter\firmw /
//                          are\CC2530DB\..\Components\stack\zdo\ -I          /
//                          C:\Users\paolo\Documents\GitHub\zpowermeter\firmw /
//                          are\CC2530DB\..\Components\zmac\ -I               /
//                          C:\Users\paolo\Documents\GitHub\zpowermeter\firmw /
//                          are\CC2530DB\..\Components\zmac\f8w\ -Ohz --eec++ /
//    List file          =  C:\Users\paolo\Documents\GitHub\zpowermeter\firmw /
//                          are\CC2530DB\RouterEB\List\zclListAttribute.s51   /
//                                                                            /
//                                                                            /
///////////////////////////////////////////////////////////////////////////////

        NAME zclListAttribute

        RTMODEL "__SystemLibrary", "CLib"
        RTMODEL "__calling_convention", "xdata_reentrant"
        RTMODEL "__code_model", "banked"
        RTMODEL "__core", "plain"
        RTMODEL "__data_model", "large"
        RTMODEL "__dptr_size", "16"
        RTMODEL "__extended_stack", "disabled"
        RTMODEL "__location_for_constants", "data"
        RTMODEL "__number_of_dptrs", "1"
        RTMODEL "__rt_version", "1"

        RSEG DOVERLAY:DATA:NOROOT(0)
        RSEG IOVERLAY:IDATA:NOROOT(0)
        RSEG ISTACK:IDATA:NOROOT(0)
        RSEG PSTACK:XDATA:NOROOT(0)
        RSEG XSTACK:XDATA:NOROOT(0)

        EXTERN ?V0
        EXTERN ?V1
        EXTERN ?V2
        EXTERN ?V3
        EXTERN ?BANKED_ENTER_XDATA
        EXTERN ?BANKED_LEAVE_XDATA
        EXTERN ?BDISPATCH
        EXTERN ?XSTACK_DISP0_8
        EXTERN __INIT_XDATA_Z

        PUBLIC ??zclFindAttrRec?relay
        FUNCTION ??zclFindAttrRec?relay,0203H
        PUBLIC ??zcl_registerAttrList?relay
        FUNCTION ??zcl_registerAttrList?relay,0203H
        PUBLIC zclFindAttrRec
        FUNCTION zclFindAttrRec,080203H
        ARGFRAME XSTACK, 2, STACK
        LOCFRAME ISTACK, 1, STACK
        LOCFRAME XSTACK, 12, STACK
        PUBLIC zcl_registerAttrList
        FUNCTION zcl_registerAttrList,0a1203H
        ARGFRAME XSTACK, 0, STACK
        LOCFRAME ISTACK, 1, STACK
        LOCFRAME XSTACK, 12, STACK
        
          CFI Names cfiNames0
          CFI StackFrame CFA_SP SP IDATA
          CFI StackFrame CFA_PSP16 PSP16 XDATA
          CFI StackFrame CFA_XSP16 XSP16 XDATA
          CFI StaticOverlayFrame CFA_IOVERLAY IOVERLAY
          CFI StaticOverlayFrame CFA_DOVERLAY DOVERLAY
          CFI Resource `PSW.CY`:1, `B.BR0`:1, `B.BR1`:1, `B.BR2`:1, `B.BR3`:1
          CFI Resource `B.BR4`:1, `B.BR5`:1, `B.BR6`:1, `B.BR7`:1, `VB.BR8`:1
          CFI Resource `VB.BR9`:1, `VB.BR10`:1, `VB.BR11`:1, `VB.BR12`:1
          CFI Resource `VB.BR13`:1, `VB.BR14`:1, `VB.BR15`:1, VB:8, B:8, A:8
          CFI Resource PSW:8, DPL0:8, DPH0:8, R0:8, R1:8, R2:8, R3:8, R4:8, R5:8
          CFI Resource R6:8, R7:8, V0:8, V1:8, V2:8, V3:8, V4:8, V5:8, V6:8, V7:8
          CFI Resource V8:8, V9:8, V10:8, V11:8, V12:8, V13:8, V14:8, V15:8, SP:8
          CFI Resource PSPH:8, PSPL:8, PSP16:16, XSPH:8, XSPL:8, XSP16:16
          CFI VirtualResource ?RET:24
          CFI Resource ?BRET_EXT:8
          CFI VirtualResource ?RET_HIGH:8, ?RET_LOW:8
          CFI ResourceParts PSP16 PSPH, PSPL
          CFI ResourceParts XSP16 XSPH, XSPL
          CFI ResourceParts ?RET ?BRET_EXT, ?RET_HIGH, ?RET_LOW
          CFI EndNames cfiNames0
        
          CFI Common cfiCommon0 Using cfiNames0
          CFI CodeAlign 1
          CFI DataAlign -1
          CFI ReturnAddress ?RET CODE
          CFI CFA_DOVERLAY Used
          CFI CFA_IOVERLAY Used
          CFI CFA_SP SP+-3
          CFI CFA_PSP16 PSP16+0
          CFI CFA_XSP16 XSP16+0
          CFI `PSW.CY` SameValue
          CFI `B.BR0` SameValue
          CFI `B.BR1` SameValue
          CFI `B.BR2` SameValue
          CFI `B.BR3` SameValue
          CFI `B.BR4` SameValue
          CFI `B.BR5` SameValue
          CFI `B.BR6` SameValue
          CFI `B.BR7` SameValue
          CFI `VB.BR8` SameValue
          CFI `VB.BR9` SameValue
          CFI `VB.BR10` SameValue
          CFI `VB.BR11` SameValue
          CFI `VB.BR12` SameValue
          CFI `VB.BR13` SameValue
          CFI `VB.BR14` SameValue
          CFI `VB.BR15` SameValue
          CFI VB SameValue
          CFI B Undefined
          CFI A Undefined
          CFI PSW SameValue
          CFI DPL0 SameValue
          CFI DPH0 SameValue
          CFI R0 Undefined
          CFI R1 Undefined
          CFI R2 Undefined
          CFI R3 Undefined
          CFI R4 Undefined
          CFI R5 Undefined
          CFI R6 SameValue
          CFI R7 SameValue
          CFI V0 SameValue
          CFI V1 SameValue
          CFI V2 SameValue
          CFI V3 SameValue
          CFI V4 SameValue
          CFI V5 SameValue
          CFI V6 SameValue
          CFI V7 SameValue
          CFI V8 SameValue
          CFI V9 SameValue
          CFI V10 SameValue
          CFI V11 SameValue
          CFI V12 SameValue
          CFI V13 SameValue
          CFI V14 SameValue
          CFI V15 SameValue
          CFI PSPH Undefined
          CFI PSPL Undefined
          CFI XSPH Undefined
          CFI XSPL Undefined
          CFI ?RET Concat
          CFI ?BRET_EXT Frame(CFA_SP, 3)
          CFI ?RET_HIGH Frame(CFA_SP, 2)
          CFI ?RET_LOW Frame(CFA_SP, 1)
          CFI EndCommon cfiCommon0
        
        
          CFI Common cfiCommon1 Using cfiNames0
          CFI CodeAlign 1
          CFI DataAlign -1
          CFI ReturnAddress ?RET CODE
          CFI CFA_DOVERLAY Used
          CFI CFA_IOVERLAY Used
          CFI CFA_SP SP+-2
          CFI CFA_PSP16 PSP16+0
          CFI CFA_XSP16 XSP16+0
          CFI `PSW.CY` SameValue
          CFI `B.BR0` SameValue
          CFI `B.BR1` SameValue
          CFI `B.BR2` SameValue
          CFI `B.BR3` SameValue
          CFI `B.BR4` SameValue
          CFI `B.BR5` SameValue
          CFI `B.BR6` SameValue
          CFI `B.BR7` SameValue
          CFI `VB.BR8` SameValue
          CFI `VB.BR9` SameValue
          CFI `VB.BR10` SameValue
          CFI `VB.BR11` SameValue
          CFI `VB.BR12` SameValue
          CFI `VB.BR13` SameValue
          CFI `VB.BR14` SameValue
          CFI `VB.BR15` SameValue
          CFI VB SameValue
          CFI B SameValue
          CFI A SameValue
          CFI PSW SameValue
          CFI DPL0 SameValue
          CFI DPH0 SameValue
          CFI R0 SameValue
          CFI R1 SameValue
          CFI R2 SameValue
          CFI R3 SameValue
          CFI R4 SameValue
          CFI R5 SameValue
          CFI R6 SameValue
          CFI R7 SameValue
          CFI V0 SameValue
          CFI V1 SameValue
          CFI V2 SameValue
          CFI V3 SameValue
          CFI V4 SameValue
          CFI V5 SameValue
          CFI V6 SameValue
          CFI V7 SameValue
          CFI V8 SameValue
          CFI V9 SameValue
          CFI V10 SameValue
          CFI V11 SameValue
          CFI V12 SameValue
          CFI V13 SameValue
          CFI V14 SameValue
          CFI V15 SameValue
          CFI PSPH Undefined
          CFI PSPL Undefined
          CFI XSPH Undefined
          CFI XSPL Undefined
          CFI ?RET Concat
          CFI ?BRET_EXT SameValue
          CFI ?RET_HIGH Frame(CFA_SP, 2)
          CFI ?RET_LOW Frame(CFA_SP, 1)
          CFI EndCommon cfiCommon1
        
osal_mem_alloc      SYMBOL "osal_mem_alloc"
??osal_mem_alloc?relay SYMBOL "?relay", osal_mem_alloc
zclFindAttrRec      SYMBOL "zclFindAttrRec"
??zclFindAttrRec?relay SYMBOL "?relay", zclFindAttrRec
zcl_registerAttrList SYMBOL "zcl_registerAttrList"
??zcl_registerAttrList?relay SYMBOL "?relay", zcl_registerAttrList

        EXTERN ??osal_mem_alloc?relay
        FUNCTION ??osal_mem_alloc?relay,00H
        EXTERN osal_mem_alloc
        FUNCTION osal_mem_alloc,0202H
        ARGFRAME ISTACK, 0, STACK
        ARGFRAME PSTACK, 0, STACK
        ARGFRAME XSTACK, 12, STACK
        ARGFRAME IOVERLAY, 0, STATIC
        ARGFRAME DOVERLAY, 0, STATIC

// C:\Users\paolo\Documents\GitHub\zpowermeter\firmware\Components\stack\zcl\zclListAttribute.cpp
//    1 /**************************************************************************************************
//    2 
//    3  DESCRIPTION:
//    4   --
//    5 
//    6  CREATED: 23/10/2015, by Paolo Achdjian
//    7 
//    8  FILE: zclListAttribute.c
//    9 
//   10 ***************************************************************************************************/
//   11 
//   12 
//   13 #include "zclListAttribute.h"
//   14 #include "hal_types.h"
//   15 #include "OSAL_Memory.h"
//   16 
//   17 #ifdef __cplusplus
//   18 extern "C"
//   19 {
//   20 #endif
//   21 	

        RSEG XDATA_Z:XDATA:NOROOT(0)
        DATA16
//   22 static struct zclAttrRecsList *attrList = (struct zclAttrRecsList *)NULL;
attrList:
        DS 2
        REQUIRE __INIT_XDATA_Z
//   23 
//   24 static struct zclAttrRecsList *zclFindAttrRecsList( uint8 endpoint );
//   25 

        RSEG BANKED_CODE:CODE:NOROOT(0)
//   26 uint8_t zclFindAttrRec( uint8_t endpoint, uint16_t clusterID, uint16_t attrId, struct zclAttrRec_t *pAttr ){
zclFindAttrRec:
          CFI Block cfiBlock0 Using cfiCommon0
          CFI Function zclFindAttrRec
        CODE
        REQUIRE ?V0
        REQUIRE ?V1
        REQUIRE ?V2
        REQUIRE ?V3
        MOV     A,#-0xc
        LCALL   ?BANKED_ENTER_XDATA
          CFI DPH0 load(1, XDATA, add(CFA_XSP16, literal(-1)))
          CFI DPL0 load(1, XDATA, add(CFA_XSP16, literal(-2)))
          CFI ?BRET_EXT load(1, XDATA, add(CFA_XSP16, literal(-3)))
          CFI ?RET_HIGH load(1, XDATA, add(CFA_XSP16, literal(-4)))
          CFI ?RET_LOW load(1, XDATA, add(CFA_XSP16, literal(-5)))
          CFI R7 load(1, XDATA, add(CFA_XSP16, literal(-6)))
          CFI V3 load(1, XDATA, add(CFA_XSP16, literal(-7)))
          CFI V2 load(1, XDATA, add(CFA_XSP16, literal(-8)))
          CFI V1 load(1, XDATA, add(CFA_XSP16, literal(-9)))
          CFI V0 load(1, XDATA, add(CFA_XSP16, literal(-10)))
          CFI VB load(1, XDATA, add(CFA_XSP16, literal(-11)))
          CFI R6 load(1, XDATA, add(CFA_XSP16, literal(-12)))
          CFI CFA_SP SP+0
          CFI CFA_XSP16 add(XSP16, 12)
        ; Saved register size: 12
        ; Auto size: 0
        MOV     A,R1
        MOV     R6,A
//   27 	struct zclAttrRecsList * endpointList = zclFindAttrRecsList(endpoint);
        MOV     DPTR,#attrList
??zclFindAttrRec_0:
        MOVX    A,@DPTR
        MOV     R0,A
        INC     DPTR
        MOVX    A,@DPTR
        MOV     R1,A
        MOV     A,R0
        ORL     A,R1
        JNZ     $+5
        LJMP    ??zclFindAttrRec_1 & 0xFFFF
        MOV     DPL,R0
        MOV     DPH,R1
        INC     DPTR
        INC     DPTR
        MOVX    A,@DPTR
        XRL     A,R6
        MOV     DPL,R0
        MOV     DPH,R1
        JNZ     ??zclFindAttrRec_0
//   28 	if(endpointList == NULL){
//   29 		return 0;
//   30 	}
//   31 	const struct  zclAttrRec_t __code  *iter = endpointList->attrs;
        INC     DPTR
        INC     DPTR
        INC     DPTR
        MOVX    A,@DPTR
        MOV     R0,A
        INC     DPTR
        MOVX    A,@DPTR
        MOV     R1,A
        SJMP    ??zclFindAttrRec_2
//   32 	for(; iter->clusterID != 0 || iter->attr.attrId !=0; iter++){
??zclFindAttrRec_3:
        MOV     A,R0
        ADD     A,#0xa
        MOV     R0,A
        JNC     ??zclFindAttrRec_2
        INC     R1
??zclFindAttrRec_2:
        MOV     DPL,R0
        MOV     DPH,R1
        CLR     A
        MOVC    A,@A+DPTR
        PUSH    A
          CFI CFA_SP SP+-1
        MOV     A,#0x1
        MOVC    A,@A+DPTR
        MOV     DPH,A
        POP     DPL
          CFI CFA_SP SP+0
        MOV     ?V2,DPL
        MOV     ?V3,DPH
        MOV     A,?V2
        ORL     A,?V3
        JNZ     ??zclFindAttrRec_4
        LCALL   ?Subroutine5 & 0xFFFF
??CrossCallReturnLabel_8:
        MOV     A,?V0
        ORL     A,?V1
        JZ      ??zclFindAttrRec_1
//   33 		if (iter->clusterID == clusterID && iter->attr.attrId==attrId){
??zclFindAttrRec_4:
        MOV     A,R2
        XRL     A,?V2
        JNZ     ??zclFindAttrRec_5
        MOV     A,R3
        XRL     A,?V3
??zclFindAttrRec_5:
        JNZ     ??zclFindAttrRec_3
        LCALL   ?Subroutine5 & 0xFFFF
??CrossCallReturnLabel_9:
        MOV     A,R4
        XRL     A,?V0
        JNZ     ??zclFindAttrRec_6
        MOV     A,R5
        XRL     A,?V1
??zclFindAttrRec_6:
        JNZ     ??zclFindAttrRec_3
        MOV     A,#0xc
        LCALL   ?XSTACK_DISP0_8
        MOVX    A,@DPTR
        MOV     ?V0,A
        INC     DPTR
        MOVX    A,@DPTR
        MOV     ?V1,A
//   34 			pAttr->clusterID = clusterID;
        MOV     DPL,?V0
        MOV     DPH,A
        LCALL   ?Subroutine2 & 0xFFFF
//   35 			pAttr->attr.accessControl = iter->attr.accessControl;
??CrossCallReturnLabel_2:
        INC     DPTR
        LCALL   ?Subroutine3 & 0xFFFF
??CrossCallReturnLabel_4:
        INC     DPTR
        MOVX    @DPTR,A
//   36 			pAttr->attr.attrId = attrId;
        MOV     DPL,?V0
        MOV     DPH,?V1
        INC     DPTR
        INC     DPTR
        MOV     A,R4
        MOVX    @DPTR,A
        INC     DPTR
        MOV     A,R5
        LCALL   ?Subroutine4 & 0xFFFF
//   37 			pAttr->attr.dataPtr = iter->attr.dataPtr;
??CrossCallReturnLabel_6:
        CLR     A
        MOVC    A,@A+DPTR
        MOV     R2,A
        MOV     A,#0x1
        MOVC    A,@A+DPTR
        MOV     R3,A
        MOV     DPL,?V0
        MOV     DPH,?V1
        INC     DPTR
        INC     DPTR
        INC     DPTR
        INC     DPTR
        INC     DPTR
        INC     DPTR
        LCALL   ?Subroutine2 & 0xFFFF
//   38 			pAttr->attr.dataType = iter->attr.dataType;
??CrossCallReturnLabel_3:
        LCALL   ?Subroutine3 & 0xFFFF
??CrossCallReturnLabel_5:
        LCALL   ?Subroutine4 & 0xFFFF
//   39 			pAttr->attr.writeCB = iter->attr.writeCB;
??CrossCallReturnLabel_7:
        INC     DPTR
        INC     DPTR
        CLR     A
        MOVC    A,@A+DPTR
        MOV     R0,A
        MOV     A,#0x1
        MOVC    A,@A+DPTR
        MOV     R1,A
        MOV     DPL,?V0
        MOV     DPH,?V1
        INC     DPTR
        INC     DPTR
        INC     DPTR
        INC     DPTR
        INC     DPTR
        INC     DPTR
        INC     DPTR
        INC     DPTR
        MOV     A,R0
        MOVX    @DPTR,A
        INC     DPTR
        MOV     A,R1
        MOVX    @DPTR,A
//   40 			return 1;
        MOV     R1,#0x1
        SJMP    ??zclFindAttrRec_7
//   41 		}
//   42 	}
//   43 	return 0;
??zclFindAttrRec_1:
        MOV     R1,#0x0
          CFI EndBlock cfiBlock0
??zclFindAttrRec_7:
        REQUIRE ?Subroutine0
        ; // Fall through to label ?Subroutine0
//   44 }

        RSEG BANKED_CODE:CODE:NOROOT(0)
?Subroutine0:
          CFI Block cfiBlock1 Using cfiCommon0
          CFI NoFunction
          CFI CFA_SP SP+0
          CFI CFA_XSP16 add(XSP16, 12)
          CFI VB load(1, XDATA, add(CFA_XSP16, literal(-11)))
          CFI DPL0 load(1, XDATA, add(CFA_XSP16, literal(-2)))
          CFI DPH0 load(1, XDATA, add(CFA_XSP16, literal(-1)))
          CFI R6 load(1, XDATA, add(CFA_XSP16, literal(-12)))
          CFI R7 load(1, XDATA, add(CFA_XSP16, literal(-6)))
          CFI V0 load(1, XDATA, add(CFA_XSP16, literal(-10)))
          CFI V1 load(1, XDATA, add(CFA_XSP16, literal(-9)))
          CFI V2 load(1, XDATA, add(CFA_XSP16, literal(-8)))
          CFI V3 load(1, XDATA, add(CFA_XSP16, literal(-7)))
          CFI ?BRET_EXT load(1, XDATA, add(CFA_XSP16, literal(-3)))
          CFI ?RET_HIGH load(1, XDATA, add(CFA_XSP16, literal(-4)))
          CFI ?RET_LOW load(1, XDATA, add(CFA_XSP16, literal(-5)))
        MOV     R7,#0x4
        LJMP    ?BANKED_LEAVE_XDATA
          CFI EndBlock cfiBlock1

        RSEG BANKED_CODE:CODE:NOROOT(0)
?Subroutine5:
          CFI Block cfiCond2 Using cfiCommon0
          CFI Function zclFindAttrRec
          CFI Conditional ??CrossCallReturnLabel_8
          CFI R6 load(1, XDATA, add(CFA_XSP16, literal(-12)))
          CFI VB load(1, XDATA, add(CFA_XSP16, literal(-11)))
          CFI V0 load(1, XDATA, add(CFA_XSP16, literal(-10)))
          CFI V1 load(1, XDATA, add(CFA_XSP16, literal(-9)))
          CFI V2 load(1, XDATA, add(CFA_XSP16, literal(-8)))
          CFI V3 load(1, XDATA, add(CFA_XSP16, literal(-7)))
          CFI R7 load(1, XDATA, add(CFA_XSP16, literal(-6)))
          CFI ?RET_LOW load(1, XDATA, add(CFA_XSP16, literal(-5)))
          CFI ?RET_HIGH load(1, XDATA, add(CFA_XSP16, literal(-4)))
          CFI ?BRET_EXT load(1, XDATA, add(CFA_XSP16, literal(-3)))
          CFI DPL0 load(1, XDATA, add(CFA_XSP16, literal(-2)))
          CFI DPH0 load(1, XDATA, add(CFA_XSP16, literal(-1)))
          CFI CFA_SP SP+-2
          CFI CFA_XSP16 add(XSP16, 12)
          CFI Block cfiCond3 Using cfiCommon0
          CFI (cfiCond3) Function zclFindAttrRec
          CFI (cfiCond3) Conditional ??CrossCallReturnLabel_9
          CFI (cfiCond3) R6 load(1, XDATA, add(CFA_XSP16, literal(-12)))
          CFI (cfiCond3) VB load(1, XDATA, add(CFA_XSP16, literal(-11)))
          CFI (cfiCond3) V0 load(1, XDATA, add(CFA_XSP16, literal(-10)))
          CFI (cfiCond3) V1 load(1, XDATA, add(CFA_XSP16, literal(-9)))
          CFI (cfiCond3) V2 load(1, XDATA, add(CFA_XSP16, literal(-8)))
          CFI (cfiCond3) V3 load(1, XDATA, add(CFA_XSP16, literal(-7)))
          CFI (cfiCond3) R7 load(1, XDATA, add(CFA_XSP16, literal(-6)))
          CFI (cfiCond3) ?RET_LOW load(1, XDATA, add(CFA_XSP16, literal(-5)))
          CFI (cfiCond3) ?RET_HIGH load(1, XDATA, add(CFA_XSP16, literal(-4)))
          CFI (cfiCond3) ?BRET_EXT load(1, XDATA, add(CFA_XSP16, literal(-3)))
          CFI (cfiCond3) DPL0 load(1, XDATA, add(CFA_XSP16, literal(-2)))
          CFI (cfiCond3) DPH0 load(1, XDATA, add(CFA_XSP16, literal(-1)))
          CFI (cfiCond3) CFA_SP SP+-2
          CFI (cfiCond3) CFA_XSP16 add(XSP16, 12)
          CFI Block cfiPicker4 Using cfiCommon1
          CFI (cfiPicker4) NoFunction
          CFI (cfiPicker4) Picker
        MOV     DPL,R0
        MOV     DPH,R1
        INC     DPTR
        INC     DPTR
        CLR     A
        MOVC    A,@A+DPTR
        MOV     ?V0,A
        MOV     A,#0x1
        MOVC    A,@A+DPTR
        MOV     ?V1,A
        RET
          CFI EndBlock cfiCond2
          CFI EndBlock cfiCond3
          CFI EndBlock cfiPicker4

        RSEG BANKED_CODE:CODE:NOROOT(0)
?Subroutine4:
          CFI Block cfiCond5 Using cfiCommon0
          CFI Function zclFindAttrRec
          CFI Conditional ??CrossCallReturnLabel_6
          CFI R6 load(1, XDATA, add(CFA_XSP16, literal(-12)))
          CFI VB load(1, XDATA, add(CFA_XSP16, literal(-11)))
          CFI V0 load(1, XDATA, add(CFA_XSP16, literal(-10)))
          CFI V1 load(1, XDATA, add(CFA_XSP16, literal(-9)))
          CFI V2 load(1, XDATA, add(CFA_XSP16, literal(-8)))
          CFI V3 load(1, XDATA, add(CFA_XSP16, literal(-7)))
          CFI R7 load(1, XDATA, add(CFA_XSP16, literal(-6)))
          CFI ?RET_LOW load(1, XDATA, add(CFA_XSP16, literal(-5)))
          CFI ?RET_HIGH load(1, XDATA, add(CFA_XSP16, literal(-4)))
          CFI ?BRET_EXT load(1, XDATA, add(CFA_XSP16, literal(-3)))
          CFI DPL0 load(1, XDATA, add(CFA_XSP16, literal(-2)))
          CFI DPH0 load(1, XDATA, add(CFA_XSP16, literal(-1)))
          CFI CFA_SP SP+-2
          CFI CFA_XSP16 add(XSP16, 12)
          CFI Block cfiCond6 Using cfiCommon0
          CFI (cfiCond6) Function zclFindAttrRec
          CFI (cfiCond6) Conditional ??CrossCallReturnLabel_7
          CFI (cfiCond6) R6 load(1, XDATA, add(CFA_XSP16, literal(-12)))
          CFI (cfiCond6) VB load(1, XDATA, add(CFA_XSP16, literal(-11)))
          CFI (cfiCond6) V0 load(1, XDATA, add(CFA_XSP16, literal(-10)))
          CFI (cfiCond6) V1 load(1, XDATA, add(CFA_XSP16, literal(-9)))
          CFI (cfiCond6) V2 load(1, XDATA, add(CFA_XSP16, literal(-8)))
          CFI (cfiCond6) V3 load(1, XDATA, add(CFA_XSP16, literal(-7)))
          CFI (cfiCond6) R7 load(1, XDATA, add(CFA_XSP16, literal(-6)))
          CFI (cfiCond6) ?RET_LOW load(1, XDATA, add(CFA_XSP16, literal(-5)))
          CFI (cfiCond6) ?RET_HIGH load(1, XDATA, add(CFA_XSP16, literal(-4)))
          CFI (cfiCond6) ?BRET_EXT load(1, XDATA, add(CFA_XSP16, literal(-3)))
          CFI (cfiCond6) DPL0 load(1, XDATA, add(CFA_XSP16, literal(-2)))
          CFI (cfiCond6) DPH0 load(1, XDATA, add(CFA_XSP16, literal(-1)))
          CFI (cfiCond6) CFA_SP SP+-2
          CFI (cfiCond6) CFA_XSP16 add(XSP16, 12)
          CFI Block cfiPicker7 Using cfiCommon1
          CFI (cfiPicker7) NoFunction
          CFI (cfiPicker7) Picker
        LCALL   ?Subroutine6 & 0xFFFF
??CrossCallReturnLabel_10:
        INC     DPTR
        INC     DPTR
        RET
          CFI EndBlock cfiCond5
          CFI EndBlock cfiCond6
          CFI EndBlock cfiPicker7

        RSEG BANKED_CODE:CODE:NOROOT(0)
?Subroutine3:
          CFI Block cfiCond8 Using cfiCommon0
          CFI Function zclFindAttrRec
          CFI Conditional ??CrossCallReturnLabel_4
          CFI R6 load(1, XDATA, add(CFA_XSP16, literal(-12)))
          CFI VB load(1, XDATA, add(CFA_XSP16, literal(-11)))
          CFI V0 load(1, XDATA, add(CFA_XSP16, literal(-10)))
          CFI V1 load(1, XDATA, add(CFA_XSP16, literal(-9)))
          CFI V2 load(1, XDATA, add(CFA_XSP16, literal(-8)))
          CFI V3 load(1, XDATA, add(CFA_XSP16, literal(-7)))
          CFI R7 load(1, XDATA, add(CFA_XSP16, literal(-6)))
          CFI ?RET_LOW load(1, XDATA, add(CFA_XSP16, literal(-5)))
          CFI ?RET_HIGH load(1, XDATA, add(CFA_XSP16, literal(-4)))
          CFI ?BRET_EXT load(1, XDATA, add(CFA_XSP16, literal(-3)))
          CFI DPL0 load(1, XDATA, add(CFA_XSP16, literal(-2)))
          CFI DPH0 load(1, XDATA, add(CFA_XSP16, literal(-1)))
          CFI CFA_SP SP+-2
          CFI CFA_XSP16 add(XSP16, 12)
          CFI Block cfiCond9 Using cfiCommon0
          CFI (cfiCond9) Function zclFindAttrRec
          CFI (cfiCond9) Conditional ??CrossCallReturnLabel_5
          CFI (cfiCond9) R6 load(1, XDATA, add(CFA_XSP16, literal(-12)))
          CFI (cfiCond9) VB load(1, XDATA, add(CFA_XSP16, literal(-11)))
          CFI (cfiCond9) V0 load(1, XDATA, add(CFA_XSP16, literal(-10)))
          CFI (cfiCond9) V1 load(1, XDATA, add(CFA_XSP16, literal(-9)))
          CFI (cfiCond9) V2 load(1, XDATA, add(CFA_XSP16, literal(-8)))
          CFI (cfiCond9) V3 load(1, XDATA, add(CFA_XSP16, literal(-7)))
          CFI (cfiCond9) R7 load(1, XDATA, add(CFA_XSP16, literal(-6)))
          CFI (cfiCond9) ?RET_LOW load(1, XDATA, add(CFA_XSP16, literal(-5)))
          CFI (cfiCond9) ?RET_HIGH load(1, XDATA, add(CFA_XSP16, literal(-4)))
          CFI (cfiCond9) ?BRET_EXT load(1, XDATA, add(CFA_XSP16, literal(-3)))
          CFI (cfiCond9) DPL0 load(1, XDATA, add(CFA_XSP16, literal(-2)))
          CFI (cfiCond9) DPH0 load(1, XDATA, add(CFA_XSP16, literal(-1)))
          CFI (cfiCond9) CFA_SP SP+-2
          CFI (cfiCond9) CFA_XSP16 add(XSP16, 12)
          CFI Block cfiPicker10 Using cfiCommon1
          CFI (cfiPicker10) NoFunction
          CFI (cfiPicker10) Picker
        CLR     A
        MOVC    A,@A+DPTR
        MOV     DPL,?V0
        MOV     DPH,?V1
        INC     DPTR
        INC     DPTR
        INC     DPTR
        INC     DPTR
        RET
          CFI EndBlock cfiCond8
          CFI EndBlock cfiCond9
          CFI EndBlock cfiPicker10

        RSEG BANKED_CODE:CODE:NOROOT(0)
?Subroutine2:
          CFI Block cfiCond11 Using cfiCommon0
          CFI Function zclFindAttrRec
          CFI Conditional ??CrossCallReturnLabel_2
          CFI R6 load(1, XDATA, add(CFA_XSP16, literal(-12)))
          CFI VB load(1, XDATA, add(CFA_XSP16, literal(-11)))
          CFI V0 load(1, XDATA, add(CFA_XSP16, literal(-10)))
          CFI V1 load(1, XDATA, add(CFA_XSP16, literal(-9)))
          CFI V2 load(1, XDATA, add(CFA_XSP16, literal(-8)))
          CFI V3 load(1, XDATA, add(CFA_XSP16, literal(-7)))
          CFI R7 load(1, XDATA, add(CFA_XSP16, literal(-6)))
          CFI ?RET_LOW load(1, XDATA, add(CFA_XSP16, literal(-5)))
          CFI ?RET_HIGH load(1, XDATA, add(CFA_XSP16, literal(-4)))
          CFI ?BRET_EXT load(1, XDATA, add(CFA_XSP16, literal(-3)))
          CFI DPL0 load(1, XDATA, add(CFA_XSP16, literal(-2)))
          CFI DPH0 load(1, XDATA, add(CFA_XSP16, literal(-1)))
          CFI CFA_SP SP+-2
          CFI CFA_XSP16 add(XSP16, 12)
          CFI Block cfiCond12 Using cfiCommon0
          CFI (cfiCond12) Function zclFindAttrRec
          CFI (cfiCond12) Conditional ??CrossCallReturnLabel_3
          CFI (cfiCond12) R6 load(1, XDATA, add(CFA_XSP16, literal(-12)))
          CFI (cfiCond12) VB load(1, XDATA, add(CFA_XSP16, literal(-11)))
          CFI (cfiCond12) V0 load(1, XDATA, add(CFA_XSP16, literal(-10)))
          CFI (cfiCond12) V1 load(1, XDATA, add(CFA_XSP16, literal(-9)))
          CFI (cfiCond12) V2 load(1, XDATA, add(CFA_XSP16, literal(-8)))
          CFI (cfiCond12) V3 load(1, XDATA, add(CFA_XSP16, literal(-7)))
          CFI (cfiCond12) R7 load(1, XDATA, add(CFA_XSP16, literal(-6)))
          CFI (cfiCond12) ?RET_LOW load(1, XDATA, add(CFA_XSP16, literal(-5)))
          CFI (cfiCond12) ?RET_HIGH load(1, XDATA, add(CFA_XSP16, literal(-4)))
          CFI (cfiCond12) ?BRET_EXT load(1, XDATA, add(CFA_XSP16, literal(-3)))
          CFI (cfiCond12) DPL0 load(1, XDATA, add(CFA_XSP16, literal(-2)))
          CFI (cfiCond12) DPH0 load(1, XDATA, add(CFA_XSP16, literal(-1)))
          CFI (cfiCond12) CFA_SP SP+-2
          CFI (cfiCond12) CFA_XSP16 add(XSP16, 12)
          CFI Block cfiPicker13 Using cfiCommon1
          CFI (cfiPicker13) NoFunction
          CFI (cfiPicker13) Picker
        MOV     A,R2
        MOVX    @DPTR,A
        INC     DPTR
        MOV     A,R3
        LCALL   ?Subroutine6 & 0xFFFF
??CrossCallReturnLabel_11:
        RET
          CFI EndBlock cfiCond11
          CFI EndBlock cfiCond12
          CFI EndBlock cfiPicker13

        RSEG BANKED_CODE:CODE:NOROOT(0)
?Subroutine6:
          CFI Block cfiCond14 Using cfiCommon0
          CFI Function zclFindAttrRec
          CFI Conditional ??CrossCallReturnLabel_10, ??CrossCallReturnLabel_6
          CFI R6 load(1, XDATA, add(CFA_XSP16, literal(-12)))
          CFI VB load(1, XDATA, add(CFA_XSP16, literal(-11)))
          CFI V0 load(1, XDATA, add(CFA_XSP16, literal(-10)))
          CFI V1 load(1, XDATA, add(CFA_XSP16, literal(-9)))
          CFI V2 load(1, XDATA, add(CFA_XSP16, literal(-8)))
          CFI V3 load(1, XDATA, add(CFA_XSP16, literal(-7)))
          CFI R7 load(1, XDATA, add(CFA_XSP16, literal(-6)))
          CFI ?RET_LOW load(1, XDATA, add(CFA_XSP16, literal(-5)))
          CFI ?RET_HIGH load(1, XDATA, add(CFA_XSP16, literal(-4)))
          CFI ?BRET_EXT load(1, XDATA, add(CFA_XSP16, literal(-3)))
          CFI DPL0 load(1, XDATA, add(CFA_XSP16, literal(-2)))
          CFI DPH0 load(1, XDATA, add(CFA_XSP16, literal(-1)))
          CFI CFA_SP SP+-4
          CFI CFA_XSP16 add(XSP16, 12)
          CFI Block cfiCond15 Using cfiCommon0
          CFI (cfiCond15) Function zclFindAttrRec
          CFI (cfiCond15) Conditional ??CrossCallReturnLabel_10, ??CrossCallReturnLabel_7
          CFI (cfiCond15) R6 load(1, XDATA, add(CFA_XSP16, literal(-12)))
          CFI (cfiCond15) VB load(1, XDATA, add(CFA_XSP16, literal(-11)))
          CFI (cfiCond15) V0 load(1, XDATA, add(CFA_XSP16, literal(-10)))
          CFI (cfiCond15) V1 load(1, XDATA, add(CFA_XSP16, literal(-9)))
          CFI (cfiCond15) V2 load(1, XDATA, add(CFA_XSP16, literal(-8)))
          CFI (cfiCond15) V3 load(1, XDATA, add(CFA_XSP16, literal(-7)))
          CFI (cfiCond15) R7 load(1, XDATA, add(CFA_XSP16, literal(-6)))
          CFI (cfiCond15) ?RET_LOW load(1, XDATA, add(CFA_XSP16, literal(-5)))
          CFI (cfiCond15) ?RET_HIGH load(1, XDATA, add(CFA_XSP16, literal(-4)))
          CFI (cfiCond15) ?BRET_EXT load(1, XDATA, add(CFA_XSP16, literal(-3)))
          CFI (cfiCond15) DPL0 load(1, XDATA, add(CFA_XSP16, literal(-2)))
          CFI (cfiCond15) DPH0 load(1, XDATA, add(CFA_XSP16, literal(-1)))
          CFI (cfiCond15) CFA_SP SP+-4
          CFI (cfiCond15) CFA_XSP16 add(XSP16, 12)
          CFI Block cfiCond16 Using cfiCommon0
          CFI (cfiCond16) Function zclFindAttrRec
          CFI (cfiCond16) Conditional ??CrossCallReturnLabel_11, ??CrossCallReturnLabel_2
          CFI (cfiCond16) R6 load(1, XDATA, add(CFA_XSP16, literal(-12)))
          CFI (cfiCond16) VB load(1, XDATA, add(CFA_XSP16, literal(-11)))
          CFI (cfiCond16) V0 load(1, XDATA, add(CFA_XSP16, literal(-10)))
          CFI (cfiCond16) V1 load(1, XDATA, add(CFA_XSP16, literal(-9)))
          CFI (cfiCond16) V2 load(1, XDATA, add(CFA_XSP16, literal(-8)))
          CFI (cfiCond16) V3 load(1, XDATA, add(CFA_XSP16, literal(-7)))
          CFI (cfiCond16) R7 load(1, XDATA, add(CFA_XSP16, literal(-6)))
          CFI (cfiCond16) ?RET_LOW load(1, XDATA, add(CFA_XSP16, literal(-5)))
          CFI (cfiCond16) ?RET_HIGH load(1, XDATA, add(CFA_XSP16, literal(-4)))
          CFI (cfiCond16) ?BRET_EXT load(1, XDATA, add(CFA_XSP16, literal(-3)))
          CFI (cfiCond16) DPL0 load(1, XDATA, add(CFA_XSP16, literal(-2)))
          CFI (cfiCond16) DPH0 load(1, XDATA, add(CFA_XSP16, literal(-1)))
          CFI (cfiCond16) CFA_SP SP+-4
          CFI (cfiCond16) CFA_XSP16 add(XSP16, 12)
          CFI Block cfiCond17 Using cfiCommon0
          CFI (cfiCond17) Function zclFindAttrRec
          CFI (cfiCond17) Conditional ??CrossCallReturnLabel_11, ??CrossCallReturnLabel_3
          CFI (cfiCond17) R6 load(1, XDATA, add(CFA_XSP16, literal(-12)))
          CFI (cfiCond17) VB load(1, XDATA, add(CFA_XSP16, literal(-11)))
          CFI (cfiCond17) V0 load(1, XDATA, add(CFA_XSP16, literal(-10)))
          CFI (cfiCond17) V1 load(1, XDATA, add(CFA_XSP16, literal(-9)))
          CFI (cfiCond17) V2 load(1, XDATA, add(CFA_XSP16, literal(-8)))
          CFI (cfiCond17) V3 load(1, XDATA, add(CFA_XSP16, literal(-7)))
          CFI (cfiCond17) R7 load(1, XDATA, add(CFA_XSP16, literal(-6)))
          CFI (cfiCond17) ?RET_LOW load(1, XDATA, add(CFA_XSP16, literal(-5)))
          CFI (cfiCond17) ?RET_HIGH load(1, XDATA, add(CFA_XSP16, literal(-4)))
          CFI (cfiCond17) ?BRET_EXT load(1, XDATA, add(CFA_XSP16, literal(-3)))
          CFI (cfiCond17) DPL0 load(1, XDATA, add(CFA_XSP16, literal(-2)))
          CFI (cfiCond17) DPH0 load(1, XDATA, add(CFA_XSP16, literal(-1)))
          CFI (cfiCond17) CFA_SP SP+-4
          CFI (cfiCond17) CFA_XSP16 add(XSP16, 12)
          CFI Block cfiPicker18 Using cfiCommon1
          CFI (cfiPicker18) NoFunction
          CFI (cfiPicker18) Picker
        MOVX    @DPTR,A
        MOV     DPL,R0
        MOV     DPH,R1
        INC     DPTR
        INC     DPTR
        INC     DPTR
        INC     DPTR
        RET
          CFI EndBlock cfiCond14
          CFI EndBlock cfiCond15
          CFI EndBlock cfiCond16
          CFI EndBlock cfiCond17
          CFI EndBlock cfiPicker18
//   45 
//   46 static struct zclAttrRecsList *zclFindAttrRecsList( uint8 endpoint ){
//   47 	struct zclAttrRecsList *pLoop = attrList;
//   48 
//   49 	while ( pLoop != NULL ){
//   50 		if ( pLoop->endpoint == endpoint ) {
//   51 			return  pLoop ;
//   52     	}
//   53 
//   54     	pLoop = pLoop->next;
//   55   	}
//   56 
//   57 	return ( NULL );
//   58 }
//   59 

        RSEG BANKED_CODE:CODE:NOROOT(0)
//   60 extern void zcl_registerAttrList(unsigned char endpoint, CONST struct zclAttrRec_t newAttrList[]){
zcl_registerAttrList:
          CFI Block cfiBlock19 Using cfiCommon0
          CFI Function zcl_registerAttrList
        CODE
        FUNCALL zcl_registerAttrList, osal_mem_alloc
        LOCFRAME ISTACK, 0, STACK
        LOCFRAME PSTACK, 0, STACK
        LOCFRAME XSTACK, 12, STACK
        LOCFRAME IOVERLAY, 0, STATIC
        LOCFRAME DOVERLAY, 0, STATIC
        ARGFRAME ISTACK, 0, STACK
        ARGFRAME PSTACK, 0, STACK
        ARGFRAME XSTACK, 12, STACK
        ARGFRAME IOVERLAY, 0, STATIC
        ARGFRAME DOVERLAY, 0, STATIC
        REQUIRE ?V0
        REQUIRE ?V2
        REQUIRE ?V3
        MOV     A,#-0xc
        LCALL   ?BANKED_ENTER_XDATA
          CFI DPH0 load(1, XDATA, add(CFA_XSP16, literal(-1)))
          CFI DPL0 load(1, XDATA, add(CFA_XSP16, literal(-2)))
          CFI ?BRET_EXT load(1, XDATA, add(CFA_XSP16, literal(-3)))
          CFI ?RET_HIGH load(1, XDATA, add(CFA_XSP16, literal(-4)))
          CFI ?RET_LOW load(1, XDATA, add(CFA_XSP16, literal(-5)))
          CFI R7 load(1, XDATA, add(CFA_XSP16, literal(-6)))
          CFI V3 load(1, XDATA, add(CFA_XSP16, literal(-7)))
          CFI V2 load(1, XDATA, add(CFA_XSP16, literal(-8)))
          CFI V1 load(1, XDATA, add(CFA_XSP16, literal(-9)))
          CFI V0 load(1, XDATA, add(CFA_XSP16, literal(-10)))
          CFI VB load(1, XDATA, add(CFA_XSP16, literal(-11)))
          CFI R6 load(1, XDATA, add(CFA_XSP16, literal(-12)))
          CFI CFA_SP SP+0
          CFI CFA_XSP16 add(XSP16, 12)
        ; Saved register size: 12
        ; Auto size: 0
        MOV     ?V0,R1
        MOV     A,R2
        MOV     R6,A
        MOV     A,R3
        MOV     R7,A
//   61 	struct zclAttrRecsList * newItem = (struct  zclAttrRecsList*)osal_mem_alloc( sizeof( struct  zclAttrRecsList ) );
        ; Setup parameters for call to function osal_mem_alloc
        MOV     R2,#0x5
        MOV     R3,#0x0
        LCALL   ??osal_mem_alloc?relay; Banked call to: osal_mem_alloc
        MOV     ?V2,R2
        MOV     ?V3,R3
        MOV     R0,?V2
        MOV     R1,?V3
//   62 	if ( attrList != NULL )  {
        MOV     DPTR,#attrList
        MOVX    A,@DPTR
        MOV     R2,A
        INC     DPTR
        MOVX    A,@DPTR
        MOV     R3,A
        MOV     A,R2
        ORL     A,R3
        JZ      ??zcl_registerAttrList_0
//   63 		attrList->next = newItem;
        MOVX    A,@DPTR
        MOV     DPH,A
        MOV     DPL,R2
        MOV     A,R0
        MOVX    @DPTR,A
        INC     DPTR
        MOV     A,R1
        LCALL   ?Subroutine1 & 0xFFFF
//   64   		attrList->endpoint = endpoint;
??CrossCallReturnLabel_0:
        MOV     A,?V0
        LCALL   ?Subroutine1 & 0xFFFF
//   65 		attrList->attrs = newAttrList;
??CrossCallReturnLabel_1:
        INC     DPTR
        MOV     A,R6
        MOVX    @DPTR,A
        INC     DPTR
        MOV     A,R7
        MOVX    @DPTR,A
//   66 		attrList = newItem;
        MOV     DPTR,#attrList
        MOV     A,R0
        MOVX    @DPTR,A
        INC     DPTR
        MOV     A,R1
        MOVX    @DPTR,A
//   67  	}
//   68 }
??zcl_registerAttrList_0:
        LJMP    ?Subroutine0 & 0xFFFF
          CFI EndBlock cfiBlock19

        RSEG BANKED_CODE:CODE:NOROOT(0)
?Subroutine1:
          CFI Block cfiCond20 Using cfiCommon0
          CFI Function zcl_registerAttrList
          CFI Conditional ??CrossCallReturnLabel_0
          CFI R6 load(1, XDATA, add(CFA_XSP16, literal(-12)))
          CFI VB load(1, XDATA, add(CFA_XSP16, literal(-11)))
          CFI V0 load(1, XDATA, add(CFA_XSP16, literal(-10)))
          CFI V1 load(1, XDATA, add(CFA_XSP16, literal(-9)))
          CFI V2 load(1, XDATA, add(CFA_XSP16, literal(-8)))
          CFI V3 load(1, XDATA, add(CFA_XSP16, literal(-7)))
          CFI R7 load(1, XDATA, add(CFA_XSP16, literal(-6)))
          CFI ?RET_LOW load(1, XDATA, add(CFA_XSP16, literal(-5)))
          CFI ?RET_HIGH load(1, XDATA, add(CFA_XSP16, literal(-4)))
          CFI ?BRET_EXT load(1, XDATA, add(CFA_XSP16, literal(-3)))
          CFI DPL0 load(1, XDATA, add(CFA_XSP16, literal(-2)))
          CFI DPH0 load(1, XDATA, add(CFA_XSP16, literal(-1)))
          CFI CFA_SP SP+-2
          CFI CFA_XSP16 add(XSP16, 12)
          CFI Block cfiCond21 Using cfiCommon0
          CFI (cfiCond21) Function zcl_registerAttrList
          CFI (cfiCond21) Conditional ??CrossCallReturnLabel_1
          CFI (cfiCond21) R6 load(1, XDATA, add(CFA_XSP16, literal(-12)))
          CFI (cfiCond21) VB load(1, XDATA, add(CFA_XSP16, literal(-11)))
          CFI (cfiCond21) V0 load(1, XDATA, add(CFA_XSP16, literal(-10)))
          CFI (cfiCond21) V1 load(1, XDATA, add(CFA_XSP16, literal(-9)))
          CFI (cfiCond21) V2 load(1, XDATA, add(CFA_XSP16, literal(-8)))
          CFI (cfiCond21) V3 load(1, XDATA, add(CFA_XSP16, literal(-7)))
          CFI (cfiCond21) R7 load(1, XDATA, add(CFA_XSP16, literal(-6)))
          CFI (cfiCond21) ?RET_LOW load(1, XDATA, add(CFA_XSP16, literal(-5)))
          CFI (cfiCond21) ?RET_HIGH load(1, XDATA, add(CFA_XSP16, literal(-4)))
          CFI (cfiCond21) ?BRET_EXT load(1, XDATA, add(CFA_XSP16, literal(-3)))
          CFI (cfiCond21) DPL0 load(1, XDATA, add(CFA_XSP16, literal(-2)))
          CFI (cfiCond21) DPH0 load(1, XDATA, add(CFA_XSP16, literal(-1)))
          CFI (cfiCond21) CFA_SP SP+-2
          CFI (cfiCond21) CFA_XSP16 add(XSP16, 12)
          CFI Block cfiPicker22 Using cfiCommon1
          CFI (cfiPicker22) NoFunction
          CFI (cfiPicker22) Picker
        MOVX    @DPTR,A
        MOV     DPTR,#attrList
        MOVX    A,@DPTR
        MOV     R2,A
        INC     DPTR
        MOVX    A,@DPTR
        MOV     DPH,A
        MOV     DPL,R2
        INC     DPTR
        INC     DPTR
        RET
          CFI EndBlock cfiCond20
          CFI EndBlock cfiCond21
          CFI EndBlock cfiPicker22

        RSEG BANK_RELAYS:CODE:REORDER:NOROOT(0)
??zclFindAttrRec?relay:
        CODE
        LCALL   ?BDISPATCH
        DATA24
        DC24    zclFindAttrRec

        RSEG BANK_RELAYS:CODE:REORDER:NOROOT(0)
??zcl_registerAttrList?relay:
        CODE
        LCALL   ?BDISPATCH
        DATA24
        DC24    zcl_registerAttrList

        END
//   69 
//   70 #ifdef __cplusplus
//   71 }
//   72 #endif
// 
// 360 bytes in segment BANKED_CODE
//  12 bytes in segment BANK_RELAYS
//   2 bytes in segment XDATA_Z
// 
// 372 bytes of CODE  memory
//   2 bytes of XDATA memory
//
//Errors: none
//Warnings: none
