###############################################################################
#                                                                             #
# IAR C/C++ Compiler V8.30.1.41636 for 8051             27/Oct/2015  21:12:28 #
# Copyright 2004-2013 IAR Systems AB.                                         #
#                                                                             #
#    Core               =  plain                                              #
#    Code model         =  banked                                             #
#    Data model         =  large                                              #
#    Calling convention =  xdata reentrant                                    #
#    Constant location  =  data_rom                                           #
#    Dptr setup         =  1,16                                               #
#                                                                             #
#    Source file        =  C:\Users\paolo\Documents\GitHub\zpowermeter\firmwa #
#                          re\Components\stack\zdo\ZDConfig.c                 #
#    Command line       =  -f C:\Users\paolo\Documents\GitHub\zpowermeter\fir #
#                          mware\CC2530DB\..\Tools\f8wRouter.cfg (-DCPU32MHZ  #
#                          -DROOT=__near_func -DMAC_CFG_APP_PENDING_QUEUE=TRU #
#                          E -DMAC_CFG_TX_DATA_MAX=5 -DMAC_CFG_TX_MAX=8       #
#                          -DMAC_CFG_RX_MAX=5 -DRTR_NWK) -f                   #
#                          C:\Users\paolo\Documents\GitHub\zpowermeter\firmwa #
#                          re\CC2530DB\..\Tools\f8wConfig.cfg (-DZIGBEEPRO    #
#                          -DSECURE=0 -DZG_SECURE_DYNAMIC=0 -DREFLECTOR       #
#                          -DDEFAULT_CHANLIST=0x00000800                      #
#                          -DZDAPP_CONFIG_PAN_ID=0xFFFF                       #
#                          -DNWK_START_DELAY=100 -DEXTENDED_JOINING_RANDOM_MA #
#                          SK=0x007F -DBEACON_REQUEST_DELAY=100               #
#                          -DBEACON_REQ_DELAY_MASK=0x00FF                     #
#                          -DLINK_STATUS_JITTER_MASK=0x007F                   #
#                          -DROUTE_EXPIRY_TIME=30 -DAPSC_ACK_WAIT_DURATION_PO #
#                          LLED=3000 -DNWK_INDIRECT_MSG_TIMEOUT=7             #
#                          -DMAX_RREQ_ENTRIES=8 -DAPSC_MAX_FRAME_RETRIES=3    #
#                          -DNWK_MAX_DATA_RETRIES=2                           #
#                          -DMAX_POLL_FAILURE_RETRIES=2 -DMAX_BCAST=9         #
#                          -DAPS_MAX_GROUPS=16 -DMAX_RTG_ENTRIES=40           #
#                          -DNWK_MAX_BINDING_ENTRIES=4                        #
#                          -DMAX_BINDING_CLUSTER_IDS=4 "-DDEFAULT_KEY={0x01,  #
#                          0x03, 0x05, 0x07, 0x09, 0x0B, 0x0D, 0x0F, 0x00,    #
#                          0x02, 0x04, 0x06, 0x08, 0x0A, 0x0C, 0x0D}"         #
#                          -DMAC_MAX_FRAME_SIZE=116                           #
#                          -DZDNWKMGR_MIN_TRANSMISSIONS=20 "-DCONST=const     #
#                          __code" -DGENERIC=__generic                        #
#                          -DRFD_RCVC_ALWAYS_ON=FALSE -DPOLL_RATE=5000        #
#                          -DQUEUED_POLL_RATE=100 -DRESPONSE_POLL_RATE=100    #
#                          -DREJOIN_POLL_RATE=440) -f                         #
#                          C:\Users\paolo\Documents\GitHub\zpowermeter\firmwa #
#                          re\CC2530DB\..\Tools\f8wZCL.cfg                    #
#                          C:\Users\paolo\Documents\GitHub\zpowermeter\firmwa #
#                          re\Components\stack\zdo\ZDConfig.c -D SECURE=0 -D  #
#                          OSC32K_CRYSTAL_INSTALLED=FALSE -D HAL_KEY=FALSE    #
#                          -D HAL_BOARD_CC2530EB_REV17 -D TC_LINKKEY_JOIN -D  #
#                          NV_INIT -D xNV_RESTORE -D MULTICAST_ENABLED=FALSE  #
#                          -D ZCL_READ -D ZCL_WRITE -D ZCL_REPORT -D          #
#                          FEATURE_SYSTEM_STATS -lC                           #
#                          C:\Users\paolo\Documents\GitHub\zpowermeter\firmwa #
#                          re\CC2530DB\RouterEB\List\ -lA                     #
#                          C:\Users\paolo\Documents\GitHub\zpowermeter\firmwa #
#                          re\CC2530DB\RouterEB\List\ --diag_suppress         #
#                          Pe001,Pa010 -o C:\Users\paolo\Documents\GitHub\zpo #
#                          wermeter\firmware\CC2530DB\RouterEB\Obj\ -e        #
#                          --debug --core=plain --dptr=16,1                   #
#                          --data_model=large --code_model=banked             #
#                          --calling_convention=xdata_reentrant               #
#                          --place_constants=data_rom --nr_virtual_regs 16    #
#                          -I C:\Users\paolo\Documents\GitHub\zpowermeter\fir #
#                          mware\CC2530DB\ -I C:\Users\paolo\Documents\GitHub #
#                          \zpowermeter\firmware\CC2530DB\..\Source\ -I       #
#                          C:\Users\paolo\Documents\GitHub\zpowermeter\firmwa #
#                          re\CC2530DB\..\Source\ha\ -I                       #
#                          C:\Users\paolo\Documents\GitHub\zpowermeter\firmwa #
#                          re\CC2530DB\..\Source\zmain\ -I                    #
#                          C:\Users\paolo\Documents\GitHub\zpowermeter\firmwa #
#                          re\CC2530DB\..\Components\hal\include\ -I          #
#                          C:\Users\paolo\Documents\GitHub\zpowermeter\firmwa #
#                          re\CC2530DB\..\Components\hal\target\CC2530EB\ -I  #
#                          C:\Users\paolo\Documents\GitHub\zpowermeter\firmwa #
#                          re\CC2530DB\..\Components\mac\include\ -I          #
#                          C:\Users\paolo\Documents\GitHub\zpowermeter\firmwa #
#                          re\CC2530DB\..\Components\mac\high_level\ -I       #
#                          C:\Users\paolo\Documents\GitHub\zpowermeter\firmwa #
#                          re\CC2530DB\..\Components\mac\low_level\srf04\ -I  #
#                          C:\Users\paolo\Documents\GitHub\zpowermeter\firmwa #
#                          re\CC2530DB\..\Components\mac\low_level\srf04\sing #
#                          le_chip\ -I C:\Users\paolo\Documents\GitHub\zpower #
#                          meter\firmware\CC2530DB\..\Components\mt\ -I       #
#                          C:\Users\paolo\Documents\GitHub\zpowermeter\firmwa #
#                          re\CC2530DB\..\Components\osal\include\ -I         #
#                          C:\Users\paolo\Documents\GitHub\zpowermeter\firmwa #
#                          re\CC2530DB\..\Components\services\saddr\ -I       #
#                          C:\Users\paolo\Documents\GitHub\zpowermeter\firmwa #
#                          re\CC2530DB\..\Components\services\sdata\ -I       #
#                          C:\Users\paolo\Documents\GitHub\zpowermeter\firmwa #
#                          re\CC2530DB\..\Components\stack\af\ -I             #
#                          C:\Users\paolo\Documents\GitHub\zpowermeter\firmwa #
#                          re\CC2530DB\..\Components\stack\nwk\ -I            #
#                          C:\Users\paolo\Documents\GitHub\zpowermeter\firmwa #
#                          re\CC2530DB\..\Components\stack\sapi\ -I           #
#                          C:\Users\paolo\Documents\GitHub\zpowermeter\firmwa #
#                          re\CC2530DB\..\Components\stack\sec\ -I            #
#                          C:\Users\paolo\Documents\GitHub\zpowermeter\firmwa #
#                          re\CC2530DB\..\Components\stack\sys\ -I            #
#                          C:\Users\paolo\Documents\GitHub\zpowermeter\firmwa #
#                          re\CC2530DB\..\Components\stack\zcl\ -I            #
#                          C:\Users\paolo\Documents\GitHub\zpowermeter\firmwa #
#                          re\CC2530DB\..\Components\stack\zdo\ -I            #
#                          C:\Users\paolo\Documents\GitHub\zpowermeter\firmwa #
#                          re\CC2530DB\..\Components\zmac\ -I                 #
#                          C:\Users\paolo\Documents\GitHub\zpowermeter\firmwa #
#                          re\CC2530DB\..\Components\zmac\f8w\ -Ohz           #
#                          --require_prototypes                               #
#    List file          =  C:\Users\paolo\Documents\GitHub\zpowermeter\firmwa #
#                          re\CC2530DB\RouterEB\List\ZDConfig.lst             #
#    Object file        =  C:\Users\paolo\Documents\GitHub\zpowermeter\firmwa #
#                          re\CC2530DB\RouterEB\Obj\ZDConfig.r51              #
#                                                                             #
#                                                                             #
###############################################################################

C:\Users\paolo\Documents\GitHub\zpowermeter\firmware\Components\stack\zdo\ZDConfig.c
      1          /**************************************************************************************************
      2            Filename:       ZDConfig.c
      3            Revised:        $Date: 2013-05-07 13:02:49 -0700 (Tue, 07 May 2013) $
      4            Revision:       $Revision: 34167 $
      5          
      6          
      7            Description:    This file contains the configuration attributes for the Zigbee Device Object.
      8                            These are references to Configuration items that MUST be defined in ZDApp.c.
      9                            The names mustn't change.
     10          
     11          
     12            Copyright 2004-2013 Texas Instruments Incorporated. All rights reserved.
     13          
     14            IMPORTANT: Your use of this Software is limited to those specific rights
     15            granted under the terms of a software license agreement between the user
     16            who downloaded the software, his/her employer (which must be your employer)
     17            and Texas Instruments Incorporated (the "License").  You may not use this
     18            Software unless you agree to abide by the terms of the License. The License
     19            limits your use, and you acknowledge, that the Software may not be modified,
     20            copied or distributed unless embedded on a Texas Instruments microcontroller
     21            or used solely and exclusively in conjunction with a Texas Instruments radio
     22            frequency transceiver, which is integrated into your product.  Other than for
     23            the foregoing purpose, you may not use, reproduce, copy, prepare derivative
     24            works of, modify, distribute, perform, display or sell this Software and/or
     25            its documentation for any purpose.
     26          
     27            YOU FURTHER ACKNOWLEDGE AND AGREE THAT THE SOFTWARE AND DOCUMENTATION ARE
     28            PROVIDED "AS IS" WITHOUT WARRANTY OF ANY KIND, EITHER EXPRESS OR IMPLIED,
     29            INCLUDING WITHOUT LIMITATION, ANY WARRANTY OF MERCHANTABILITY, TITLE,
     30            NON-INFRINGEMENT AND FITNESS FOR A PARTICULAR PURPOSE. IN NO EVENT SHALL
     31            TEXAS INSTRUMENTS OR ITS LICENSORS BE LIABLE OR OBLIGATED UNDER CONTRACT,
     32            NEGLIGENCE, STRICT LIABILITY, CONTRIBUTION, BREACH OF WARRANTY, OR OTHER
     33            LEGAL EQUITABLE THEORY ANY DIRECT OR INDIRECT DAMAGES OR EXPENSES
     34            INCLUDING BUT NOT LIMITED TO ANY INCIDENTAL, SPECIAL, INDIRECT, PUNITIVE
     35            OR CONSEQUENTIAL DAMAGES, LOST PROFITS OR LOST DATA, COST OF PROCUREMENT
     36            OF SUBSTITUTE GOODS, TECHNOLOGY, SERVICES, OR ANY CLAIMS BY THIRD PARTIES
     37            (INCLUDING BUT NOT LIMITED TO ANY DEFENSE THEREOF), OR OTHER SIMILAR COSTS.
     38          
     39            Should you have any questions regarding your right to use this Software,
     40            contact Texas Instruments Incorporated at www.TI.com.
     41          **************************************************************************************************/
     42          
     43          /*********************************************************************
     44           * INCLUDES
     45           */
     46          #include "ZComDef.h"
     47          #include "AF.h"
     48          #include "ZDObject.h"
     49          #include "ZDConfig.h"
     50          
     51           /*********************************************************************
     52           * MACROS
     53           */
     54          
     55          /*********************************************************************
     56           * CONSTANTS
     57           */
     58          
     59          /*********************************************************************
     60           * TYPEDEFS
     61           */
     62          
     63          /*********************************************************************
     64           * GLOBAL VARIABLES
     65           */

   \                                 In  segment XDATA_Z, align 1, keep-with-next
     66          NodeDescriptorFormat_t ZDO_Config_Node_Descriptor;
   \                     ZDO_Config_Node_Descriptor:
   \   000000                DS 13
   \   00000D                REQUIRE __INIT_XDATA_Z

   \                                 In  segment XDATA_Z, align 1, keep-with-next
     67          NodePowerDescriptorFormat_t ZDO_Config_Power_Descriptor;
   \                     ZDO_Config_Power_Descriptor:
   \   000000                DS 2
   \   000002                REQUIRE __INIT_XDATA_Z
     68          
     69          /*********************************************************************
     70           * EXTERNAL VARIABLES
     71           */
     72          
     73          /*********************************************************************
     74           * EXTERNAL FUNCTIONS
     75           */
     76          
     77          /*********************************************************************
     78           * LOCAL FUNCTIONS
     79           */
     80          
     81          /*********************************************************************
     82           * LOCAL VARIABLES
     83           */
     84          
     85          /*********************************************************************
     86           * @fn      ZDConfig_InitDescriptors()
     87           *
     88           * @brief   Setup the ZDO descriptors
     89           *             Node, Power
     90           *
     91           * @param   none
     92           *
     93           * @return  none
     94           */

   \                                 In  segment BANKED_CODE, align 1, keep-with-next
     95          void ZDConfig_InitDescriptors( void )
   \                     ZDConfig_InitDescriptors:
     96          {
   \   000000   C082         PUSH    DPL
   \   000002   C083         PUSH    DPH
   \   000004                ; Saved register size: 2
   \   000004                ; Auto size: 0
     97            ZDConfig_UpdateNodeDescriptor();
   \   000004                ; Setup parameters for call to function ZDConfig_UpdateNodeDescriptor
   \   000004   12....       LCALL   ??ZDConfig_UpdateNodeDescriptor?relay; Banked call to: ZDConfig_UpdateNodeDescriptor
     98            ZDConfig_UpdatePowerDescriptor();
   \   000007                ; Setup parameters for call to function ZDConfig_UpdatePowerDescriptor
   \   000007   12....       LCALL   ??ZDConfig_UpdatePowerDescriptor?relay; Banked call to: ZDConfig_UpdatePowerDescriptor
     99          }
   \   00000A                REQUIRE ?Subroutine0
   \   00000A                ; // Fall through to label ?Subroutine0

   \                                 In  segment BANKED_CODE, align 1, keep-with-next
   \                     ?Subroutine0:
   \   000000   D083         POP     DPH
   \   000002   D082         POP     DPL
   \   000004   02....       LJMP    ?BRET
    100          
    101          /*********************************************************************
    102           * @fn      ZDConfig_UpdateNodeDescriptor()
    103           *
    104           * @brief   Update the ZDO Node Descriptor
    105           *
    106           * @param   none
    107           *
    108           * @return  none
    109           */

   \                                 In  segment BANKED_CODE, align 1, keep-with-next
    110          void ZDConfig_UpdateNodeDescriptor( void )
   \                     ZDConfig_UpdateNodeDescriptor:
    111          {
   \   000000   C082         PUSH    DPL
   \   000002   C083         PUSH    DPH
   \   000004                ; Saved register size: 2
   \   000004                ; Auto size: 0
    112            // Build the Node Descriptor
    113            if ( ZG_BUILD_COORDINATOR_TYPE && ZG_DEVICE_COORDINATOR_TYPE )
    114              ZDO_Config_Node_Descriptor.LogicalType = NODETYPE_COORDINATOR;
    115            else if ( ZSTACK_ROUTER_BUILD )
   \   000004   90....       MOV     DPTR,#ZDO_Config_Node_Descriptor
   \   000007   E0           MOVX    A,@DPTR
   \   000008   54F8         ANL     A,#0xf8
   \   00000A   F8           MOV     R0,A
   \   00000B   90....       MOV     DPTR,#zgDeviceLogicalType
   \   00000E   E0           MOVX    A,@DPTR
   \   00000F   6004         JZ      ??ZDConfig_UpdateNodeDescriptor_0
   \   000011   6401         XRL     A,#0x1
   \   000013   7004         JNZ     ??ZDConfig_UpdateNodeDescriptor_1
    116              ZDO_Config_Node_Descriptor.LogicalType = NODETYPE_ROUTER;
   \                     ??ZDConfig_UpdateNodeDescriptor_0:
   \   000015   7401         MOV     A,#0x1
   \   000017   8007         SJMP    ??ZDConfig_UpdateNodeDescriptor_2
    117            else if ( ZSTACK_END_DEVICE_BUILD )
   \                     ??ZDConfig_UpdateNodeDescriptor_1:
   \   000019   E0           MOVX    A,@DPTR
   \   00001A   6402         XRL     A,#0x2
   \   00001C   7007         JNZ     ??ZDConfig_UpdateNodeDescriptor_3
    118              ZDO_Config_Node_Descriptor.LogicalType = NODETYPE_DEVICE;
   \   00001E   7402         MOV     A,#0x2
   \                     ??ZDConfig_UpdateNodeDescriptor_2:
   \   000020   48           ORL     A,R0
   \   000021   90....       MOV     DPTR,#ZDO_Config_Node_Descriptor
   \   000024   F0           MOVX    @DPTR,A
    119          
    120            ZDO_Config_Node_Descriptor.ComplexDescAvail = FALSE;      // set elsewhere
    121            ZDO_Config_Node_Descriptor.UserDescAvail = FALSE;         // set elsewhere
    122            ZDO_Config_Node_Descriptor.Reserved = 0;                  // Reserved
   \                     ??ZDConfig_UpdateNodeDescriptor_3:
   \   000025   90....       MOV     DPTR,#ZDO_Config_Node_Descriptor
   \   000028   E0           MOVX    A,@DPTR
   \   000029   5407         ANL     A,#0x7
   \   00002B   F0           MOVX    @DPTR,A
    123            ZDO_Config_Node_Descriptor.APSFlags = 0;                  // NO APS flags
    124            ZDO_Config_Node_Descriptor.FrequencyBand = NODEFREQ_2400; // Frequency Band
   \   00002C   A3           INC     DPTR
   \   00002D   7440         MOV     A,#0x40
   \   00002F   F0           MOVX    @DPTR,A
    125          
    126            // MAC Capabilities
    127            if ( ZSTACK_ROUTER_BUILD )
   \   000030   90....       MOV     DPTR,#zgDeviceLogicalType
   \   000033   E0           MOVX    A,@DPTR
   \   000034   6004         JZ      ??ZDConfig_UpdateNodeDescriptor_4
   \   000036   6401         XRL     A,#0x1
   \   000038   7007         JNZ     ??ZDConfig_UpdateNodeDescriptor_5
    128            {
    129              ZDO_Config_Node_Descriptor.CapabilityFlags
    130                        = (CAPINFO_DEVICETYPE_FFD | CAPINFO_POWER_AC |
    131                           CAPINFO_RCVR_ON_IDLE | CAPINFO_ALLOC_ADDR);
   \                     ??ZDConfig_UpdateNodeDescriptor_4:
   \   00003A   90....       MOV     DPTR,#ZDO_Config_Node_Descriptor + 2
   \   00003D   748E         MOV     A,#-0x72
   \   00003F   800A         SJMP    ??ZDConfig_UpdateNodeDescriptor_6
    132          
    133              if ( ZG_BUILD_COORDINATOR_TYPE && ZG_DEVICE_COORDINATOR_TYPE )
    134                ZDO_Config_Node_Descriptor.CapabilityFlags |= CAPINFO_ALTPANCOORD;
    135            }
    136            else if ( ZSTACK_END_DEVICE_BUILD )
   \                     ??ZDConfig_UpdateNodeDescriptor_5:
   \   000041   E0           MOVX    A,@DPTR
   \   000042   6402         XRL     A,#0x2
   \   000044   7006         JNZ     ??ZDConfig_UpdateNodeDescriptor_7
    137            {
    138              ZDO_Config_Node_Descriptor.CapabilityFlags = (CAPINFO_DEVICETYPE_RFD
    139            #if ( RFD_RCVC_ALWAYS_ON == TRUE)
    140                      | CAPINFO_RCVR_ON_IDLE
    141            #endif
    142                  | CAPINFO_ALLOC_ADDR);
   \   000046   90....       MOV     DPTR,#ZDO_Config_Node_Descriptor + 2
   \   000049   7480         MOV     A,#-0x80
   \                     ??ZDConfig_UpdateNodeDescriptor_6:
   \   00004B   F0           MOVX    @DPTR,A
    143            }
    144          
    145            // Manufacturer Code - *YOU FILL IN*
    146            ZDO_Config_Node_Descriptor.ManufacturerCode[0] = 0;
   \                     ??ZDConfig_UpdateNodeDescriptor_7:
   \   00004C   90....       MOV     DPTR,#ZDO_Config_Node_Descriptor + 3
   \   00004F   E4           CLR     A
   \   000050   F0           MOVX    @DPTR,A
    147            ZDO_Config_Node_Descriptor.ManufacturerCode[1] = 0;
   \   000051   A3           INC     DPTR
   \   000052   F0           MOVX    @DPTR,A
    148          
    149            // Maximum Buffer Size
    150            ZDO_Config_Node_Descriptor.MaxBufferSize = MAX_BUFFER_SIZE;
   \   000053   A3           INC     DPTR
   \   000054   7450         MOV     A,#0x50
   \   000056   F0           MOVX    @DPTR,A
    151          
    152            // Maximum Incoming Transfer Size Field
    153            ZDO_Config_Node_Descriptor.MaxInTransferSize[0] = LO_UINT16( MAX_TRANSFER_SIZE );
   \   000057   A3           INC     DPTR
   \   000058   74A0         MOV     A,#-0x60
   \   00005A   F0           MOVX    @DPTR,A
    154            ZDO_Config_Node_Descriptor.MaxInTransferSize[1] = HI_UINT16( MAX_TRANSFER_SIZE );
   \   00005B   A3           INC     DPTR
   \   00005C   E4           CLR     A
   \   00005D   F0           MOVX    @DPTR,A
    155          
    156            // Maximum Outgoing Transfer Size Field
    157            ZDO_Config_Node_Descriptor.MaxOutTransferSize[0] = LO_UINT16( MAX_TRANSFER_SIZE );
   \   00005E   90....       MOV     DPTR,#ZDO_Config_Node_Descriptor + 10
   \   000061   74A0         MOV     A,#-0x60
   \   000063   F0           MOVX    @DPTR,A
    158            ZDO_Config_Node_Descriptor.MaxOutTransferSize[1] = HI_UINT16( MAX_TRANSFER_SIZE );
   \   000064   A3           INC     DPTR
   \   000065   E4           CLR     A
   \   000066   F0           MOVX    @DPTR,A
    159          
    160            // Server Mask
    161            ZDO_Config_Node_Descriptor.ServerMask = 0;
   \   000067   90....       MOV     DPTR,#ZDO_Config_Node_Descriptor + 8
   \   00006A   F0           MOVX    @DPTR,A
   \   00006B   A3           INC     DPTR
   \   00006C   F0           MOVX    @DPTR,A
    162          
    163            // Descriptor Capability Field - extended active endpoint list and
    164            // extended simple descriptor are not supported.
    165            ZDO_Config_Node_Descriptor.DescriptorCapability = 0;
   \   00006D   90....       MOV     DPTR,#ZDO_Config_Node_Descriptor + 12
   \   000070   F0           MOVX    @DPTR,A
    166          }
   \   000071   80..         SJMP    ?Subroutine0
    167          
    168          /*********************************************************************
    169           * @fn      ZDConfig_UpdatePowerDescriptor()
    170           *
    171           * @brief   Update the ZDO Power Descriptor
    172           *
    173           * @param   none
    174           *
    175           * @return  none
    176           */

   \                                 In  segment BANKED_CODE, align 1, keep-with-next
    177          void ZDConfig_UpdatePowerDescriptor( void )
   \                     ZDConfig_UpdatePowerDescriptor:
    178          {
   \   000000   C082         PUSH    DPL
   \   000002   C083         PUSH    DPH
   \   000004                ; Saved register size: 2
   \   000004                ; Auto size: 0
    179            // Build the Power Descriptor
    180            if ( ZSTACK_ROUTER_BUILD )
   \   000004   90....       MOV     DPTR,#zgDeviceLogicalType
   \   000007   E0           MOVX    A,@DPTR
   \   000008   6004         JZ      ??ZDConfig_UpdatePowerDescriptor_0
   \   00000A   6401         XRL     A,#0x1
   \   00000C   700B         JNZ     ??ZDConfig_UpdatePowerDescriptor_1
    181            {
    182              ZDO_Config_Power_Descriptor.PowerMode = NODECURPWR_RCVR_ALWAYS_ON;
    183              ZDO_Config_Power_Descriptor.AvailablePowerSources = NODEAVAILPWR_MAINS;
    184              ZDO_Config_Power_Descriptor.CurrentPowerSource = NODEAVAILPWR_MAINS;
    185              ZDO_Config_Power_Descriptor.CurrentPowerSourceLevel = NODEPOWER_LEVEL_100;
   \                     ??ZDConfig_UpdatePowerDescriptor_0:
   \   00000E   90....       MOV     DPTR,#ZDO_Config_Power_Descriptor
   \   000011   7410         MOV     A,#0x10
   \   000013   F0           MOVX    @DPTR,A
   \   000014   A3           INC     DPTR
   \   000015   74C1         MOV     A,#-0x3f
   \   000017   8036         SJMP    ??ZDConfig_UpdatePowerDescriptor_2
    186            }
    187            else if ( ZSTACK_END_DEVICE_BUILD )
   \                     ??ZDConfig_UpdatePowerDescriptor_1:
   \   000019   E0           MOVX    A,@DPTR
   \   00001A   6402         XRL     A,#0x2
   \   00001C   7032         JNZ     ??ZDConfig_UpdatePowerDescriptor_3
    188            {
    189              if ( zgPollRate )
   \   00001E   90....       MOV     DPTR,#ZDO_Config_Power_Descriptor
   \   000021   E0           MOVX    A,@DPTR
   \   000022   54F0         ANL     A,#0xf0
   \   000024   F8           MOV     R0,A
   \   000025   A3           INC     DPTR
   \   000026   E0           MOVX    A,@DPTR
   \   000027   F9           MOV     R1,A
   \   000028   90....       MOV     DPTR,#zgPollRate
   \   00002B   E0           MOVX    A,@DPTR
   \   00002C   FA           MOV     R2,A
   \   00002D   A3           INC     DPTR
   \   00002E   E0           MOVX    A,@DPTR
   \   00002F   FB           MOV     R3,A
   \   000030   EA           MOV     A,R2
   \   000031   4B           ORL     A,R3
   \   000032   6005         JZ      ??ZDConfig_UpdatePowerDescriptor_4
    190                ZDO_Config_Power_Descriptor.PowerMode = NODECURPWR_RCVR_AUTO;
   \   000034   E8           MOV     A,R0
   \   000035   4401         ORL     A,#0x1
   \   000037   8003         SJMP    ??ZDConfig_UpdatePowerDescriptor_5
    191              else
    192                ZDO_Config_Power_Descriptor.PowerMode = NODECURPWR_RCVR_STIM;
   \                     ??ZDConfig_UpdatePowerDescriptor_4:
   \   000039   E8           MOV     A,R0
   \   00003A   4402         ORL     A,#0x2
   \                     ??ZDConfig_UpdatePowerDescriptor_5:
   \   00003C   90....       MOV     DPTR,#ZDO_Config_Power_Descriptor
   \   00003F   F0           MOVX    @DPTR,A
   \   000040   A3           INC     DPTR
   \   000041   E9           MOV     A,R1
   \   000042   F0           MOVX    @DPTR,A
    193          
    194              ZDO_Config_Power_Descriptor.AvailablePowerSources = NODEAVAILPWR_RECHARGE;
    195              ZDO_Config_Power_Descriptor.CurrentPowerSource = NODEAVAILPWR_RECHARGE;
    196              ZDO_Config_Power_Descriptor.CurrentPowerSourceLevel = NODEPOWER_LEVEL_66;
   \   000043   90....       MOV     DPTR,#ZDO_Config_Power_Descriptor
   \   000046   E0           MOVX    A,@DPTR
   \   000047   540F         ANL     A,#0xf
   \   000049   4420         ORL     A,#0x20
   \   00004B   F0           MOVX    @DPTR,A
   \   00004C   A3           INC     DPTR
   \   00004D   7482         MOV     A,#-0x7e
   \                     ??ZDConfig_UpdatePowerDescriptor_2:
   \   00004F   F0           MOVX    @DPTR,A
    197            }
    198          }
   \                     ??ZDConfig_UpdatePowerDescriptor_3:
   \   000050   02....       LJMP    ?Subroutine0 & 0xFFFF

   \                                 In  segment BANK_RELAYS, align 1
   \                     ??ZDConfig_InitDescriptors?relay:
   \   000000   12....       LCALL   ?BDISPATCH
   \   000003   ......       DC24    ZDConfig_InitDescriptors

   \                                 In  segment BANK_RELAYS, align 1
   \                     ??ZDConfig_UpdateNodeDescriptor?relay:
   \   000000   12....       LCALL   ?BDISPATCH
   \   000003   ......       DC24    ZDConfig_UpdateNodeDescriptor

   \                                 In  segment BANK_RELAYS, align 1
   \                     ??ZDConfig_UpdatePowerDescriptor?relay:
   \   000000   12....       LCALL   ?BDISPATCH
   \   000003   ......       DC24    ZDConfig_UpdatePowerDescriptor
    199          
    200          /*********************************************************************
    201          *********************************************************************/
    202          
    203          

   Maximum stack usage in bytes:

   ISTACK Function
   ------ --------
      2   ZDConfig_InitDescriptors
        2   -> ZDConfig_UpdateNodeDescriptor
        2   -> ZDConfig_UpdatePowerDescriptor
      2   ZDConfig_UpdateNodeDescriptor
      2   ZDConfig_UpdatePowerDescriptor


   Segment part sizes:

   Bytes  Function/Label
   -----  --------------
       6  ??ZDConfig_InitDescriptors?relay
       6  ??ZDConfig_UpdateNodeDescriptor?relay
       6  ??ZDConfig_UpdatePowerDescriptor?relay
       7  ?Subroutine0
      10  ZDConfig_InitDescriptors
     115  ZDConfig_UpdateNodeDescriptor
      83  ZDConfig_UpdatePowerDescriptor
      13  ZDO_Config_Node_Descriptor
       2  ZDO_Config_Power_Descriptor

 
 215 bytes in segment BANKED_CODE
  18 bytes in segment BANK_RELAYS
  15 bytes in segment XDATA_Z
 
 233 bytes of CODE  memory
  15 bytes of XDATA memory

Errors: none
Warnings: none
